
obj/kern/kernel:     file format elf32-i386


Disassembly of section .text:

00100000 <_start-0xc>:
.long MULTIBOOT_HEADER_FLAGS
.long CHECKSUM

.globl		start,_start
start: _start:
	movw	$0x1234,0x472			# warm boot BIOS flag
  100000:	02 b0 ad 1b 03 00    	add    0x31bad(%eax),%dh
  100006:	00 00                	add    %al,(%eax)
  100008:	fb                   	sti    
  100009:	4f                   	dec    %edi
  10000a:	52                   	push   %edx
  10000b:	e4 66                	in     $0x66,%al

0010000c <_start>:
  10000c:	66 c7 05 72 04 00 00 	movw   $0x1234,0x472
  100013:	34 12 

	# Clear the frame pointer register (EBP)
	# so that once we get into debugging C code,
	# stack backtraces will be terminated properly.
	movl	$0x0,%ebp			# nuke frame pointer
  100015:	bd 00 00 00 00       	mov    $0x0,%ebp

	# Leave a few words on the stack for the user trap frame
	movl	$(cpu_boot+4096-SIZEOF_STRUCT_TRAPFRAME),%esp
  10001a:	bc b4 ff 10 00       	mov    $0x10ffb4,%esp

	# now to C code
	call	init
  10001f:	e8 76 00 00 00       	call   10009a <init>

00100024 <spin>:

	# Should never get here, but in case we do, just spin.
spin:	jmp	spin
  100024:	eb fe                	jmp    100024 <spin>
  100026:	66 90                	xchg   %ax,%ax

00100028 <cpu_cur>:
#define cpu_disabled(c)		0

// Find the CPU struct representing the current CPU.
// It always resides at the bottom of the page containing the CPU's stack.
static inline cpu *
cpu_cur() {
  100028:	55                   	push   %ebp
  100029:	89 e5                	mov    %esp,%ebp
  10002b:	53                   	push   %ebx
  10002c:	83 ec 24             	sub    $0x24,%esp

static gcc_inline uint32_t
read_esp(void)
{
        uint32_t esp;
        __asm __volatile("movl %%esp,%0" : "=rm" (esp));
  10002f:	89 e3                	mov    %esp,%ebx
  100031:	89 5d ec             	mov    %ebx,-0x14(%ebp)
        return esp;
  100034:	8b 45 ec             	mov    -0x14(%ebp),%eax
	cpu *c = (cpu*)ROUNDDOWN(read_esp(), PAGESIZE);
  100037:	89 45 f4             	mov    %eax,-0xc(%ebp)
  10003a:	8b 45 f4             	mov    -0xc(%ebp),%eax
  10003d:	25 00 f0 ff ff       	and    $0xfffff000,%eax
  100042:	89 45 f0             	mov    %eax,-0x10(%ebp)
	assert(c->magic == CPU_MAGIC);
  100045:	8b 45 f0             	mov    -0x10(%ebp),%eax
  100048:	8b 80 b8 00 00 00    	mov    0xb8(%eax),%eax
  10004e:	3d 32 54 76 98       	cmp    $0x98765432,%eax
  100053:	74 24                	je     100079 <cpu_cur+0x51>
  100055:	c7 44 24 0c 20 a1 10 	movl   $0x10a120,0xc(%esp)
  10005c:	00 
  10005d:	c7 44 24 08 36 a1 10 	movl   $0x10a136,0x8(%esp)
  100064:	00 
  100065:	c7 44 24 04 5c 00 00 	movl   $0x5c,0x4(%esp)
  10006c:	00 
  10006d:	c7 04 24 4b a1 10 00 	movl   $0x10a14b,(%esp)
  100074:	e8 bf 08 00 00       	call   100938 <debug_panic>
	return c;
  100079:	8b 45 f0             	mov    -0x10(%ebp),%eax
}
  10007c:	83 c4 24             	add    $0x24,%esp
  10007f:	5b                   	pop    %ebx
  100080:	5d                   	pop    %ebp
  100081:	c3                   	ret    

00100082 <cpu_onboot>:

// Returns true if we're running on the bootstrap CPU.
static inline int
cpu_onboot() {
  100082:	55                   	push   %ebp
  100083:	89 e5                	mov    %esp,%ebp
  100085:	83 ec 08             	sub    $0x8,%esp
	return cpu_cur() == &cpu_boot;
  100088:	e8 9b ff ff ff       	call   100028 <cpu_cur>
  10008d:	3d 00 f0 10 00       	cmp    $0x10f000,%eax
  100092:	0f 94 c0             	sete   %al
  100095:	0f b6 c0             	movzbl %al,%eax
}
  100098:	c9                   	leave  
  100099:	c3                   	ret    

0010009a <init>:
// Called first from entry.S on the bootstrap processor,
// and later from boot/bootother.S on all other processors.
// As a rule, "init" functions in PIOS are called once on EACH processor.
void
init(void)
{
  10009a:	55                   	push   %ebp
  10009b:	89 e5                	mov    %esp,%ebp
  10009d:	83 ec 18             	sub    $0x18,%esp
	extern char start[], edata[], end[];
	
	// Before anything else, complete the ELF loading process.
	// Clear all uninitialized global data (BSS) in our program
	// ensuring that all static/global variables start out zero.
	if (cpu_onboot())
  1000a0:	e8 dd ff ff ff       	call   100082 <cpu_onboot>
  1000a5:	85 c0                	test   %eax,%eax
  1000a7:	74 28                	je     1000d1 <init+0x37>
		memset(edata, 0, end - edata);
  1000a9:	ba 08 c0 38 00       	mov    $0x38c008,%edx
  1000ae:	b8 39 21 18 00       	mov    $0x182139,%eax
  1000b3:	89 d1                	mov    %edx,%ecx
  1000b5:	29 c1                	sub    %eax,%ecx
  1000b7:	89 c8                	mov    %ecx,%eax
  1000b9:	89 44 24 08          	mov    %eax,0x8(%esp)
  1000bd:	c7 44 24 04 00 00 00 	movl   $0x0,0x4(%esp)
  1000c4:	00 
  1000c5:	c7 04 24 39 21 18 00 	movl   $0x182139,(%esp)
  1000cc:	e8 70 9b 00 00       	call   109c41 <memset>

	// Initialize the console.
	// Can't call cprintf until after we do this!
	// hong :
	// the first thing the kernel does is initialize the console device driver so that your kernel can produce visible output. 
	cons_init();
  1000d1:	e8 8f 05 00 00       	call   100665 <cons_init>
	// Lab 1: test cprintf and debug_trace
	cprintf("1234 decimal is %o octal!\n", 1234);
  1000d6:	c7 44 24 04 d2 04 00 	movl   $0x4d2,0x4(%esp)
  1000dd:	00 
  1000de:	c7 04 24 58 a1 10 00 	movl   $0x10a158,(%esp)
  1000e5:	e8 e6 97 00 00       	call   1098d0 <cprintf>
	debug_check();
  1000ea:	e8 66 0a 00 00       	call   100b55 <debug_check>
	// Initialize and load the bootstrap CPU's GDT, TSS, and IDT.
	cpu_init();
  1000ef:	e8 23 15 00 00       	call   101617 <cpu_init>
	trap_init();
  1000f4:	e8 8f 1a 00 00       	call   101b88 <trap_init>
	// Physical memory detection/initialization.
	// Can't call mem_alloc until after we do this!
	mem_init();
  1000f9:	e8 14 0d 00 00       	call   100e12 <mem_init>
	
	// Lab 2: check spinlock implementation
	if (cpu_onboot())
  1000fe:	e8 7f ff ff ff       	call   100082 <cpu_onboot>
  100103:	85 c0                	test   %eax,%eax
  100105:	74 05                	je     10010c <init+0x72>
		spinlock_check();
  100107:	e8 21 2a 00 00       	call   102b2d <spinlock_check>

	// Initialize the paged virtual memory system.
	pmap_init();
  10010c:	e8 a5 47 00 00       	call   1048b6 <pmap_init>
	// Find and start other processors in a multiprocessor system
	mp_init();		// Find info about processors in system
  100111:	e8 a3 26 00 00       	call   1027b9 <mp_init>
	pic_init();		// setup the legacy PIC (mainly to disable it)
  100116:	e8 8d 88 00 00       	call   1089a8 <pic_init>
	ioapic_init();		// prepare to handle external device interrupts
  10011b:	e8 d1 8e 00 00       	call   108ff1 <ioapic_init>
	lapic_init();		// setup this CPU's local APIC
  100120:	e8 7a 8b 00 00       	call   108c9f <lapic_init>
	//cpu_bootothers();	// Get other processors started
	//cprintf("CPU %d (%s) has booted\n", cpu_cur()->id,
	//	cpu_onboot() ? "BP" : "AP");

	// Initialize the I/O system.
	file_init();		// Create root directory and console I/O files
  100125:	e8 8c 7c 00 00       	call   107db6 <file_init>
	// Lab 4: uncomment this when you can handle IRQ_SERIAL and IRQ_KBD.
	cons_intenable();	// Let the console start producing interrupts
  10012a:	e8 9a 05 00 00       	call   1006c9 <cons_intenable>
	// Initialize the process management code.
	proc_init();
  10012f:	e8 73 2f 00 00       	call   1030a7 <proc_init>
	if(cpu_onboot()){
  100134:	e8 49 ff ff ff       	call   100082 <cpu_onboot>
  100139:	85 c0                	test   %eax,%eax
  10013b:	0f 84 91 00 00 00    	je     1001d2 <init+0x138>
		proc_root= proc_alloc(NULL, 0);
  100141:	c7 44 24 04 00 00 00 	movl   $0x0,0x4(%esp)
  100148:	00 
  100149:	c7 04 24 00 00 00 00 	movl   $0x0,(%esp)
  100150:	e8 96 2f 00 00       	call   1030eb <proc_alloc>
  100155:	a3 90 96 38 00       	mov    %eax,0x389690
		file_initroot(proc_root);
  10015a:	a1 90 96 38 00       	mov    0x389690,%eax
  10015f:	89 04 24             	mov    %eax,(%esp)
  100162:	e8 7f 7c 00 00       	call   107de6 <file_initroot>
		load_elf(ROOTEXE_START,proc_root);
  100167:	a1 90 96 38 00       	mov    0x389690,%eax
  10016c:	89 44 24 04          	mov    %eax,0x4(%esp)
  100170:	c7 04 24 99 aa 15 00 	movl   $0x15aa99,(%esp)
  100177:	e8 eb 00 00 00       	call   100267 <load_elf>
		proc_root->sv.tf.fs = CPU_GDT_UDATA | 3;
  10017c:	a1 90 96 38 00       	mov    0x389690,%eax
  100181:	66 c7 80 d4 04 00 00 	movw   $0x23,0x4d4(%eax)
  100188:	23 00 
		proc_root->sv.tf.gs = CPU_GDT_UDATA | 3;
  10018a:	a1 90 96 38 00       	mov    0x389690,%eax
  10018f:	66 c7 80 d0 04 00 00 	movw   $0x23,0x4d0(%eax)
  100196:	23 00 
		proc_root->sv.tf.eip = (uint32_t)(0x40000100);
  100198:	a1 90 96 38 00       	mov    0x389690,%eax
  10019d:	c7 80 e8 04 00 00 00 	movl   $0x40000100,0x4e8(%eax)
  1001a4:	01 00 40 
		proc_root->sv.tf.esp = (uint32_t)(VM_USERHI -1);
  1001a7:	a1 90 96 38 00       	mov    0x389690,%eax
  1001ac:	c7 80 f4 04 00 00 ff 	movl   $0xefffffff,0x4f4(%eax)
  1001b3:	ff ff ef 
		proc_root->sv.tf.eflags = FL_IF;
  1001b6:	a1 90 96 38 00       	mov    0x389690,%eax
  1001bb:	c7 80 f0 04 00 00 00 	movl   $0x200,0x4f0(%eax)
  1001c2:	02 00 00 
		proc_ready(proc_root);
  1001c5:	a1 90 96 38 00       	mov    0x389690,%eax
  1001ca:	89 04 24             	mov    %eax,(%esp)
  1001cd:	e8 fd 30 00 00       	call   1032cf <proc_ready>
		//lcr3(mem_phys(proc_root->pdir));
	}
	proc_sched();
  1001d2:	e8 8b 32 00 00       	call   103462 <proc_sched>

001001d7 <user>:
// This is the first function that gets run in user mode (ring 3).
// It acts as PIOS's "root process",
// of which all other processes are descendants.
void
user()
{
  1001d7:	55                   	push   %ebp
  1001d8:	89 e5                	mov    %esp,%ebp
  1001da:	53                   	push   %ebx
  1001db:	83 ec 24             	sub    $0x24,%esp
	// hong: system haven't complete 
	 cprintf("in user()\n");
  1001de:	c7 04 24 73 a1 10 00 	movl   $0x10a173,(%esp)
  1001e5:	e8 e6 96 00 00       	call   1098d0 <cprintf>

static gcc_inline uint32_t
read_esp(void)
{
        uint32_t esp;
        __asm __volatile("movl %%esp,%0" : "=rm" (esp));
  1001ea:	89 e3                	mov    %esp,%ebx
  1001ec:	89 5d f4             	mov    %ebx,-0xc(%ebp)
        return esp;
  1001ef:	8b 45 f4             	mov    -0xc(%ebp),%eax
	assert(read_esp() > (uint32_t) &user_stack[0]);
  1001f2:	89 c2                	mov    %eax,%edx
  1001f4:	b8 00 30 18 00       	mov    $0x183000,%eax
  1001f9:	39 c2                	cmp    %eax,%edx
  1001fb:	77 24                	ja     100221 <user+0x4a>
  1001fd:	c7 44 24 0c 80 a1 10 	movl   $0x10a180,0xc(%esp)
  100204:	00 
  100205:	c7 44 24 08 36 a1 10 	movl   $0x10a136,0x8(%esp)
  10020c:	00 
  10020d:	c7 44 24 04 8a 00 00 	movl   $0x8a,0x4(%esp)
  100214:	00 
  100215:	c7 04 24 a7 a1 10 00 	movl   $0x10a1a7,(%esp)
  10021c:	e8 17 07 00 00       	call   100938 <debug_panic>

static gcc_inline uint32_t
read_esp(void)
{
        uint32_t esp;
        __asm __volatile("movl %%esp,%0" : "=rm" (esp));
  100221:	89 e3                	mov    %esp,%ebx
  100223:	89 5d f0             	mov    %ebx,-0x10(%ebp)
        return esp;
  100226:	8b 45 f0             	mov    -0x10(%ebp),%eax
	// hong:
	// sizeof(user_stack) == 4096
	assert(read_esp() < (uint32_t) &user_stack[sizeof(user_stack)]);
  100229:	89 c2                	mov    %eax,%edx
  10022b:	b8 00 40 18 00       	mov    $0x184000,%eax
  100230:	39 c2                	cmp    %eax,%edx
  100232:	72 24                	jb     100258 <user+0x81>
  100234:	c7 44 24 0c b4 a1 10 	movl   $0x10a1b4,0xc(%esp)
  10023b:	00 
  10023c:	c7 44 24 08 36 a1 10 	movl   $0x10a136,0x8(%esp)
  100243:	00 
  100244:	c7 44 24 04 8d 00 00 	movl   $0x8d,0x4(%esp)
  10024b:	00 
  10024c:	c7 04 24 a7 a1 10 00 	movl   $0x10a1a7,(%esp)
  100253:	e8 e0 06 00 00       	call   100938 <debug_panic>
	// Check the system call and process scheduling code.
	proc_check();
  100258:	e8 a9 33 00 00       	call   103606 <proc_check>

	done();
  10025d:	e8 00 00 00 00       	call   100262 <done>

00100262 <done>:
// it just puts the processor into an infinite loop.
// We make this a function so that we can set a breakpoints on it.
// Our grade scripts use this breakpoint to know when to stop QEMU.
void gcc_noreturn
done()
{
  100262:	55                   	push   %ebp
  100263:	89 e5                	mov    %esp,%ebp
	while (1)
		;	// just spin
  100265:	eb fe                	jmp    100265 <done+0x3>

00100267 <load_elf>:
}

void load_elf(char* elf, proc* p){
  100267:	55                   	push   %ebp
  100268:	89 e5                	mov    %esp,%ebp
  10026a:	53                   	push   %ebx
  10026b:	83 ec 44             	sub    $0x44,%esp
	uint32_t va, p_va_start, p_va_end;
	proghdr* phd;
	int i, j;
	pte_t* pte;
	elfhdr* elf_load = (elfhdr*)elf;
  10026e:	8b 45 08             	mov    0x8(%ebp),%eax
  100271:	89 45 e4             	mov    %eax,-0x1c(%ebp)
	phd = (proghdr*)(elf + elf_load->e_phoff);
  100274:	8b 45 e4             	mov    -0x1c(%ebp),%eax
  100277:	8b 50 1c             	mov    0x1c(%eax),%edx
  10027a:	8b 45 08             	mov    0x8(%ebp),%eax
  10027d:	01 d0                	add    %edx,%eax
  10027f:	89 45 f0             	mov    %eax,-0x10(%ebp)
	
	for(i = 0; i < elf_load->e_phnum; i++){
  100282:	c7 45 ec 00 00 00 00 	movl   $0x0,-0x14(%ebp)
  100289:	e9 9f 00 00 00       	jmp    10032d <load_elf+0xc6>
		if(phd->p_type != 1){
  10028e:	8b 45 f0             	mov    -0x10(%ebp),%eax
  100291:	8b 00                	mov    (%eax),%eax
  100293:	83 f8 01             	cmp    $0x1,%eax
  100296:	74 09                	je     1002a1 <load_elf+0x3a>
			phd++;
  100298:	83 45 f0 20          	addl   $0x20,-0x10(%ebp)
			continue;
  10029c:	e9 88 00 00 00       	jmp    100329 <load_elf+0xc2>
		}
		p_va_start = phd->p_va & (~0xfff);
  1002a1:	8b 45 f0             	mov    -0x10(%ebp),%eax
  1002a4:	8b 40 08             	mov    0x8(%eax),%eax
  1002a7:	25 00 f0 ff ff       	and    $0xfffff000,%eax
  1002ac:	89 45 e0             	mov    %eax,-0x20(%ebp)
		p_va_end = (p_va_start + phd->p_memsz - 1) & ~0xfff;
  1002af:	8b 45 f0             	mov    -0x10(%ebp),%eax
  1002b2:	8b 50 14             	mov    0x14(%eax),%edx
  1002b5:	8b 45 e0             	mov    -0x20(%ebp),%eax
  1002b8:	01 d0                	add    %edx,%eax
  1002ba:	83 e8 01             	sub    $0x1,%eax
  1002bd:	25 00 f0 ff ff       	and    $0xfffff000,%eax
  1002c2:	89 45 dc             	mov    %eax,-0x24(%ebp)
		for(va = p_va_start; va <= p_va_end; va+=PAGESIZE){
  1002c5:	8b 45 e0             	mov    -0x20(%ebp),%eax
  1002c8:	89 45 f4             	mov    %eax,-0xc(%ebp)
  1002cb:	eb 50                	jmp    10031d <load_elf+0xb6>
			if(pmap_insert(p->pdir, mem_alloc(), va, PTE_P | PTE_W | PTE_U) == NULL){
  1002cd:	e8 f9 0c 00 00       	call   100fcb <mem_alloc>
  1002d2:	8b 55 0c             	mov    0xc(%ebp),%edx
  1002d5:	8b 92 00 07 00 00    	mov    0x700(%edx),%edx
  1002db:	c7 44 24 0c 07 00 00 	movl   $0x7,0xc(%esp)
  1002e2:	00 
  1002e3:	8b 4d f4             	mov    -0xc(%ebp),%ecx
  1002e6:	89 4c 24 08          	mov    %ecx,0x8(%esp)
  1002ea:	89 44 24 04          	mov    %eax,0x4(%esp)
  1002ee:	89 14 24             	mov    %edx,(%esp)
  1002f1:	e8 1a 4c 00 00       	call   104f10 <pmap_insert>
  1002f6:	85 c0                	test   %eax,%eax
  1002f8:	75 1c                	jne    100316 <load_elf+0xaf>
				panic("no mem in load_elf.\n");
  1002fa:	c7 44 24 08 ec a1 10 	movl   $0x10a1ec,0x8(%esp)
  100301:	00 
  100302:	c7 44 24 04 b0 00 00 	movl   $0xb0,0x4(%esp)
  100309:	00 
  10030a:	c7 04 24 a7 a1 10 00 	movl   $0x10a1a7,(%esp)
  100311:	e8 22 06 00 00       	call   100938 <debug_panic>
			phd++;
			continue;
		}
		p_va_start = phd->p_va & (~0xfff);
		p_va_end = (p_va_start + phd->p_memsz - 1) & ~0xfff;
		for(va = p_va_start; va <= p_va_end; va+=PAGESIZE){
  100316:	81 45 f4 00 10 00 00 	addl   $0x1000,-0xc(%ebp)
  10031d:	8b 45 f4             	mov    -0xc(%ebp),%eax
  100320:	3b 45 dc             	cmp    -0x24(%ebp),%eax
  100323:	76 a8                	jbe    1002cd <load_elf+0x66>
			if(pmap_insert(p->pdir, mem_alloc(), va, PTE_P | PTE_W | PTE_U) == NULL){
				panic("no mem in load_elf.\n");
			};
		}
		phd++;
  100325:	83 45 f0 20          	addl   $0x20,-0x10(%ebp)
	int i, j;
	pte_t* pte;
	elfhdr* elf_load = (elfhdr*)elf;
	phd = (proghdr*)(elf + elf_load->e_phoff);
	
	for(i = 0; i < elf_load->e_phnum; i++){
  100329:	83 45 ec 01          	addl   $0x1,-0x14(%ebp)
  10032d:	8b 45 e4             	mov    -0x1c(%ebp),%eax
  100330:	0f b7 40 2c          	movzwl 0x2c(%eax),%eax
  100334:	0f b7 c0             	movzwl %ax,%eax
  100337:	3b 45 ec             	cmp    -0x14(%ebp),%eax
  10033a:	0f 8f 4e ff ff ff    	jg     10028e <load_elf+0x27>
			};
		}
		phd++;
	}
	
	phd = (proghdr*)(elf + elf_load->e_phoff);
  100340:	8b 45 e4             	mov    -0x1c(%ebp),%eax
  100343:	8b 50 1c             	mov    0x1c(%eax),%edx
  100346:	8b 45 08             	mov    0x8(%ebp),%eax
  100349:	01 d0                	add    %edx,%eax
  10034b:	89 45 f0             	mov    %eax,-0x10(%ebp)
	for(i = 0; i < elf_load->e_phnum; i++){
  10034e:	c7 45 ec 00 00 00 00 	movl   $0x0,-0x14(%ebp)
  100355:	e9 8c 00 00 00       	jmp    1003e6 <load_elf+0x17f>
		if(phd->p_type != 1){
  10035a:	8b 45 f0             	mov    -0x10(%ebp),%eax
  10035d:	8b 00                	mov    (%eax),%eax
  10035f:	83 f8 01             	cmp    $0x1,%eax
  100362:	74 06                	je     10036a <load_elf+0x103>
			phd++;
  100364:	83 45 f0 20          	addl   $0x20,-0x10(%ebp)
			continue;
  100368:	eb 78                	jmp    1003e2 <load_elf+0x17b>
		}

		char* load_va_start = (char*)phd->p_va;
  10036a:	8b 45 f0             	mov    -0x10(%ebp),%eax
  10036d:	8b 40 08             	mov    0x8(%eax),%eax
  100370:	89 45 d8             	mov    %eax,-0x28(%ebp)
		//char* load_start = (char*)phd + phd->p_offset;
		char* load_start = elf + phd->p_offset;
  100373:	8b 45 f0             	mov    -0x10(%ebp),%eax
  100376:	8b 50 04             	mov    0x4(%eax),%edx
  100379:	8b 45 08             	mov    0x8(%ebp),%eax
  10037c:	01 d0                	add    %edx,%eax
  10037e:	89 45 d4             	mov    %eax,-0x2c(%ebp)
		for(j = 0; j < phd->p_filesz; j++){
  100381:	c7 45 e8 00 00 00 00 	movl   $0x0,-0x18(%ebp)
  100388:	eb 19                	jmp    1003a3 <load_elf+0x13c>
			*(load_va_start + j) = *(load_start + j);
  10038a:	8b 55 e8             	mov    -0x18(%ebp),%edx
  10038d:	8b 45 d8             	mov    -0x28(%ebp),%eax
  100390:	01 c2                	add    %eax,%edx
  100392:	8b 4d e8             	mov    -0x18(%ebp),%ecx
  100395:	8b 45 d4             	mov    -0x2c(%ebp),%eax
  100398:	01 c8                	add    %ecx,%eax
  10039a:	0f b6 00             	movzbl (%eax),%eax
  10039d:	88 02                	mov    %al,(%edx)
		}

		char* load_va_start = (char*)phd->p_va;
		//char* load_start = (char*)phd + phd->p_offset;
		char* load_start = elf + phd->p_offset;
		for(j = 0; j < phd->p_filesz; j++){
  10039f:	83 45 e8 01          	addl   $0x1,-0x18(%ebp)
  1003a3:	8b 55 e8             	mov    -0x18(%ebp),%edx
  1003a6:	8b 45 f0             	mov    -0x10(%ebp),%eax
  1003a9:	8b 40 10             	mov    0x10(%eax),%eax
  1003ac:	39 c2                	cmp    %eax,%edx
  1003ae:	72 da                	jb     10038a <load_elf+0x123>
			*(load_va_start + j) = *(load_start + j);
		}
		// memmove((char*)p_va_start, (char*)((uint32_t)phd + phd->p_offset), (size_t)phd->p_filesz);
		if(phd->p_memsz > phd->p_filesz){
  1003b0:	8b 45 f0             	mov    -0x10(%ebp),%eax
  1003b3:	8b 50 14             	mov    0x14(%eax),%edx
  1003b6:	8b 45 f0             	mov    -0x10(%ebp),%eax
  1003b9:	8b 40 10             	mov    0x10(%eax),%eax
  1003bc:	39 c2                	cmp    %eax,%edx
  1003be:	76 1e                	jbe    1003de <load_elf+0x177>
			//memset((char*)((uint32_t)phd + phd->p_offset + phd->p_filesz), 0, (size_t)(phd->p_memsz - phd->p_filesz));
			for(j; j < phd->p_memsz; j++)
  1003c0:	eb 0f                	jmp    1003d1 <load_elf+0x16a>
				*(load_va_start + j) = 0;
  1003c2:	8b 55 e8             	mov    -0x18(%ebp),%edx
  1003c5:	8b 45 d8             	mov    -0x28(%ebp),%eax
  1003c8:	01 d0                	add    %edx,%eax
  1003ca:	c6 00 00             	movb   $0x0,(%eax)
			*(load_va_start + j) = *(load_start + j);
		}
		// memmove((char*)p_va_start, (char*)((uint32_t)phd + phd->p_offset), (size_t)phd->p_filesz);
		if(phd->p_memsz > phd->p_filesz){
			//memset((char*)((uint32_t)phd + phd->p_offset + phd->p_filesz), 0, (size_t)(phd->p_memsz - phd->p_filesz));
			for(j; j < phd->p_memsz; j++)
  1003cd:	83 45 e8 01          	addl   $0x1,-0x18(%ebp)
  1003d1:	8b 55 e8             	mov    -0x18(%ebp),%edx
  1003d4:	8b 45 f0             	mov    -0x10(%ebp),%eax
  1003d7:	8b 40 14             	mov    0x14(%eax),%eax
  1003da:	39 c2                	cmp    %eax,%edx
  1003dc:	72 e4                	jb     1003c2 <load_elf+0x15b>
				*(load_va_start + j) = 0;
		}
		phd++;
  1003de:	83 45 f0 20          	addl   $0x20,-0x10(%ebp)
		}
		phd++;
	}
	
	phd = (proghdr*)(elf + elf_load->e_phoff);
	for(i = 0; i < elf_load->e_phnum; i++){
  1003e2:	83 45 ec 01          	addl   $0x1,-0x14(%ebp)
  1003e6:	8b 45 e4             	mov    -0x1c(%ebp),%eax
  1003e9:	0f b7 40 2c          	movzwl 0x2c(%eax),%eax
  1003ed:	0f b7 c0             	movzwl %ax,%eax
  1003f0:	3b 45 ec             	cmp    -0x14(%ebp),%eax
  1003f3:	0f 8f 61 ff ff ff    	jg     10035a <load_elf+0xf3>
				*(load_va_start + j) = 0;
		}
		phd++;
	}
	
	phd = (proghdr*)(elf + elf_load->e_phoff);
  1003f9:	8b 45 e4             	mov    -0x1c(%ebp),%eax
  1003fc:	8b 50 1c             	mov    0x1c(%eax),%edx
  1003ff:	8b 45 08             	mov    0x8(%ebp),%eax
  100402:	01 d0                	add    %edx,%eax
  100404:	89 45 f0             	mov    %eax,-0x10(%ebp)
	for(i = 0; i < elf_load->e_phnum; i++){
  100407:	c7 45 ec 00 00 00 00 	movl   $0x0,-0x14(%ebp)
  10040e:	e9 97 00 00 00       	jmp    1004aa <load_elf+0x243>
		if(phd->p_type != 1){
  100413:	8b 45 f0             	mov    -0x10(%ebp),%eax
  100416:	8b 00                	mov    (%eax),%eax
  100418:	83 f8 01             	cmp    $0x1,%eax
  10041b:	74 09                	je     100426 <load_elf+0x1bf>
			phd++;
  10041d:	83 45 f0 20          	addl   $0x20,-0x10(%ebp)
			continue;
  100421:	e9 80 00 00 00       	jmp    1004a6 <load_elf+0x23f>
		}
		if(phd->p_flags & ELF_PROG_FLAG_WRITE){
  100426:	8b 45 f0             	mov    -0x10(%ebp),%eax
  100429:	8b 40 18             	mov    0x18(%eax),%eax
  10042c:	83 e0 02             	and    $0x2,%eax
  10042f:	85 c0                	test   %eax,%eax
  100431:	74 06                	je     100439 <load_elf+0x1d2>
			phd++;
  100433:	83 45 f0 20          	addl   $0x20,-0x10(%ebp)
			continue;
  100437:	eb 6d                	jmp    1004a6 <load_elf+0x23f>
		}
		p_va_start = phd->p_va & (~0xfff);
  100439:	8b 45 f0             	mov    -0x10(%ebp),%eax
  10043c:	8b 40 08             	mov    0x8(%eax),%eax
  10043f:	25 00 f0 ff ff       	and    $0xfffff000,%eax
  100444:	89 45 e0             	mov    %eax,-0x20(%ebp)
		p_va_end = (p_va_start + phd->p_memsz - 1) & ~0xfff;
  100447:	8b 45 f0             	mov    -0x10(%ebp),%eax
  10044a:	8b 50 14             	mov    0x14(%eax),%edx
  10044d:	8b 45 e0             	mov    -0x20(%ebp),%eax
  100450:	01 d0                	add    %edx,%eax
  100452:	83 e8 01             	sub    $0x1,%eax
  100455:	25 00 f0 ff ff       	and    $0xfffff000,%eax
  10045a:	89 45 dc             	mov    %eax,-0x24(%ebp)
		for(va = p_va_start; va <= p_va_end; va+=PAGESIZE){
  10045d:	8b 45 e0             	mov    -0x20(%ebp),%eax
  100460:	89 45 f4             	mov    %eax,-0xc(%ebp)
  100463:	eb 39                	jmp    10049e <load_elf+0x237>
			pte = pmap_walk(p->pdir,va,1);
  100465:	8b 45 0c             	mov    0xc(%ebp),%eax
  100468:	8b 80 00 07 00 00    	mov    0x700(%eax),%eax
  10046e:	c7 44 24 08 01 00 00 	movl   $0x1,0x8(%esp)
  100475:	00 
  100476:	8b 55 f4             	mov    -0xc(%ebp),%edx
  100479:	89 54 24 04          	mov    %edx,0x4(%esp)
  10047d:	89 04 24             	mov    %eax,(%esp)
  100480:	e8 4a 48 00 00       	call   104ccf <pmap_walk>
  100485:	89 45 d0             	mov    %eax,-0x30(%ebp)
			*pte = *pte & (~PTE_W);
  100488:	8b 45 d0             	mov    -0x30(%ebp),%eax
  10048b:	8b 00                	mov    (%eax),%eax
  10048d:	89 c2                	mov    %eax,%edx
  10048f:	83 e2 fd             	and    $0xfffffffd,%edx
  100492:	8b 45 d0             	mov    -0x30(%ebp),%eax
  100495:	89 10                	mov    %edx,(%eax)
			phd++;
			continue;
		}
		p_va_start = phd->p_va & (~0xfff);
		p_va_end = (p_va_start + phd->p_memsz - 1) & ~0xfff;
		for(va = p_va_start; va <= p_va_end; va+=PAGESIZE){
  100497:	81 45 f4 00 10 00 00 	addl   $0x1000,-0xc(%ebp)
  10049e:	8b 45 f4             	mov    -0xc(%ebp),%eax
  1004a1:	3b 45 dc             	cmp    -0x24(%ebp),%eax
  1004a4:	76 bf                	jbe    100465 <load_elf+0x1fe>
		}
		phd++;
	}
	
	phd = (proghdr*)(elf + elf_load->e_phoff);
	for(i = 0; i < elf_load->e_phnum; i++){
  1004a6:	83 45 ec 01          	addl   $0x1,-0x14(%ebp)
  1004aa:	8b 45 e4             	mov    -0x1c(%ebp),%eax
  1004ad:	0f b7 40 2c          	movzwl 0x2c(%eax),%eax
  1004b1:	0f b7 c0             	movzwl %ax,%eax
  1004b4:	3b 45 ec             	cmp    -0x14(%ebp),%eax
  1004b7:	0f 8f 56 ff ff ff    	jg     100413 <load_elf+0x1ac>
			pte = pmap_walk(p->pdir,va,1);
			*pte = *pte & (~PTE_W);
		}
	}
	
	if(pmap_insert(p->pdir, mem_alloc(), rootexe_stack_addr,SYS_RW| PTE_U | PTE_P | PTE_W) == NULL)
  1004bd:	8b 1d 00 e0 10 00    	mov    0x10e000,%ebx
  1004c3:	e8 03 0b 00 00       	call   100fcb <mem_alloc>
  1004c8:	8b 55 0c             	mov    0xc(%ebp),%edx
  1004cb:	8b 92 00 07 00 00    	mov    0x700(%edx),%edx
  1004d1:	c7 44 24 0c 07 06 00 	movl   $0x607,0xc(%esp)
  1004d8:	00 
  1004d9:	89 5c 24 08          	mov    %ebx,0x8(%esp)
  1004dd:	89 44 24 04          	mov    %eax,0x4(%esp)
  1004e1:	89 14 24             	mov    %edx,(%esp)
  1004e4:	e8 27 4a 00 00       	call   104f10 <pmap_insert>
  1004e9:	85 c0                	test   %eax,%eax
  1004eb:	75 1c                	jne    100509 <load_elf+0x2a2>
		panic("Has no mem in load_elf assign stack.\n");
  1004ed:	c7 44 24 08 04 a2 10 	movl   $0x10a204,0x8(%esp)
  1004f4:	00 
  1004f5:	c7 44 24 04 df 00 00 	movl   $0xdf,0x4(%esp)
  1004fc:	00 
  1004fd:	c7 04 24 a7 a1 10 00 	movl   $0x10a1a7,(%esp)
  100504:	e8 2f 04 00 00       	call   100938 <debug_panic>
}
  100509:	83 c4 44             	add    $0x44,%esp
  10050c:	5b                   	pop    %ebx
  10050d:	5d                   	pop    %ebp
  10050e:	c3                   	ret    
  10050f:	90                   	nop

00100510 <cpu_cur>:
#define cpu_disabled(c)		0

// Find the CPU struct representing the current CPU.
// It always resides at the bottom of the page containing the CPU's stack.
static inline cpu *
cpu_cur() {
  100510:	55                   	push   %ebp
  100511:	89 e5                	mov    %esp,%ebp
  100513:	53                   	push   %ebx
  100514:	83 ec 24             	sub    $0x24,%esp

static gcc_inline uint32_t
read_esp(void)
{
        uint32_t esp;
        __asm __volatile("movl %%esp,%0" : "=rm" (esp));
  100517:	89 e3                	mov    %esp,%ebx
  100519:	89 5d ec             	mov    %ebx,-0x14(%ebp)
        return esp;
  10051c:	8b 45 ec             	mov    -0x14(%ebp),%eax
	cpu *c = (cpu*)ROUNDDOWN(read_esp(), PAGESIZE);
  10051f:	89 45 f4             	mov    %eax,-0xc(%ebp)
  100522:	8b 45 f4             	mov    -0xc(%ebp),%eax
  100525:	25 00 f0 ff ff       	and    $0xfffff000,%eax
  10052a:	89 45 f0             	mov    %eax,-0x10(%ebp)
	assert(c->magic == CPU_MAGIC);
  10052d:	8b 45 f0             	mov    -0x10(%ebp),%eax
  100530:	8b 80 b8 00 00 00    	mov    0xb8(%eax),%eax
  100536:	3d 32 54 76 98       	cmp    $0x98765432,%eax
  10053b:	74 24                	je     100561 <cpu_cur+0x51>
  10053d:	c7 44 24 0c 2a a2 10 	movl   $0x10a22a,0xc(%esp)
  100544:	00 
  100545:	c7 44 24 08 40 a2 10 	movl   $0x10a240,0x8(%esp)
  10054c:	00 
  10054d:	c7 44 24 04 5c 00 00 	movl   $0x5c,0x4(%esp)
  100554:	00 
  100555:	c7 04 24 55 a2 10 00 	movl   $0x10a255,(%esp)
  10055c:	e8 d7 03 00 00       	call   100938 <debug_panic>
	return c;
  100561:	8b 45 f0             	mov    -0x10(%ebp),%eax
}
  100564:	83 c4 24             	add    $0x24,%esp
  100567:	5b                   	pop    %ebx
  100568:	5d                   	pop    %ebp
  100569:	c3                   	ret    

0010056a <cpu_onboot>:

// Returns true if we're running on the bootstrap CPU.
static inline int
cpu_onboot() {
  10056a:	55                   	push   %ebp
  10056b:	89 e5                	mov    %esp,%ebp
  10056d:	83 ec 08             	sub    $0x8,%esp
	return cpu_cur() == &cpu_boot;
  100570:	e8 9b ff ff ff       	call   100510 <cpu_cur>
  100575:	3d 00 f0 10 00       	cmp    $0x10f000,%eax
  10057a:	0f 94 c0             	sete   %al
  10057d:	0f b6 c0             	movzbl %al,%eax
}
  100580:	c9                   	leave  
  100581:	c3                   	ret    

00100582 <cons_intr>:
static int fi_read_pos = (uint32_t)FILEDATA(FILEINO_CONSIN);
// called by device interrupt routines to feed input characters
// into the circular console input buffer.
void
cons_intr(int (*proc)(void))
{
  100582:	55                   	push   %ebp
  100583:	89 e5                	mov    %esp,%ebp
  100585:	83 ec 28             	sub    $0x28,%esp
	int c;
	spinlock_acquire(&cons_lock);
  100588:	c7 04 24 00 8f 18 00 	movl   $0x188f00,(%esp)
  10058f:	e8 5d 24 00 00       	call   1029f1 <spinlock_acquire>
	while ((c = (*proc)()) != -1) {
  100594:	eb 35                	jmp    1005cb <cons_intr+0x49>
		if (c == 0)
  100596:	83 7d f4 00          	cmpl   $0x0,-0xc(%ebp)
  10059a:	74 2e                	je     1005ca <cons_intr+0x48>
			continue;
		s_consin.buf[s_consin.wpos++] = c;
  10059c:	a1 04 42 18 00       	mov    0x184204,%eax
  1005a1:	8b 55 f4             	mov    -0xc(%ebp),%edx
  1005a4:	88 90 00 40 18 00    	mov    %dl,0x184000(%eax)
  1005aa:	83 c0 01             	add    $0x1,%eax
  1005ad:	a3 04 42 18 00       	mov    %eax,0x184204
		if (s_consin.wpos == CONSBUFSIZE)
  1005b2:	a1 04 42 18 00       	mov    0x184204,%eax
  1005b7:	3d 00 02 00 00       	cmp    $0x200,%eax
  1005bc:	75 0d                	jne    1005cb <cons_intr+0x49>
			s_consin.wpos = 0;
  1005be:	c7 05 04 42 18 00 00 	movl   $0x0,0x184204
  1005c5:	00 00 00 
  1005c8:	eb 01                	jmp    1005cb <cons_intr+0x49>
{
	int c;
	spinlock_acquire(&cons_lock);
	while ((c = (*proc)()) != -1) {
		if (c == 0)
			continue;
  1005ca:	90                   	nop
void
cons_intr(int (*proc)(void))
{
	int c;
	spinlock_acquire(&cons_lock);
	while ((c = (*proc)()) != -1) {
  1005cb:	8b 45 08             	mov    0x8(%ebp),%eax
  1005ce:	ff d0                	call   *%eax
  1005d0:	89 45 f4             	mov    %eax,-0xc(%ebp)
  1005d3:	83 7d f4 ff          	cmpl   $0xffffffff,-0xc(%ebp)
  1005d7:	75 bd                	jne    100596 <cons_intr+0x14>
			continue;
		s_consin.buf[s_consin.wpos++] = c;
		if (s_consin.wpos == CONSBUFSIZE)
			s_consin.wpos = 0;
	}
	spinlock_release(&cons_lock);
  1005d9:	c7 04 24 00 8f 18 00 	movl   $0x188f00,(%esp)
  1005e0:	e8 81 24 00 00       	call   102a66 <spinlock_release>

	// Wake the root process
	file_wakeroot();
  1005e5:	e8 58 7c 00 00       	call   108242 <file_wakeroot>
}
  1005ea:	c9                   	leave  
  1005eb:	c3                   	ret    

001005ec <cons_getc>:

// return the next input character from the console, or 0 if none waiting
int
cons_getc(void)
{
  1005ec:	55                   	push   %ebp
  1005ed:	89 e5                	mov    %esp,%ebp
  1005ef:	83 ec 18             	sub    $0x18,%esp
	int c;

	// poll for any pending input characters,
	// so that this function works even when interrupts are disabled
	// (e.g., when called from the kernel monitor).
	serial_intr();
  1005f2:	e8 13 82 00 00       	call   10880a <serial_intr>
	kbd_intr();
  1005f7:	e8 16 81 00 00       	call   108712 <kbd_intr>

	// grab the next character from the input buffer.
	if (s_consin.rpos != s_consin.wpos) {
  1005fc:	8b 15 00 42 18 00    	mov    0x184200,%edx
  100602:	a1 04 42 18 00       	mov    0x184204,%eax
  100607:	39 c2                	cmp    %eax,%edx
  100609:	74 35                	je     100640 <cons_getc+0x54>
		c = s_consin.buf[s_consin.rpos++];
  10060b:	a1 00 42 18 00       	mov    0x184200,%eax
  100610:	0f b6 90 00 40 18 00 	movzbl 0x184000(%eax),%edx
  100617:	0f b6 d2             	movzbl %dl,%edx
  10061a:	89 55 f4             	mov    %edx,-0xc(%ebp)
  10061d:	83 c0 01             	add    $0x1,%eax
  100620:	a3 00 42 18 00       	mov    %eax,0x184200
		if (s_consin.rpos == CONSBUFSIZE)
  100625:	a1 00 42 18 00       	mov    0x184200,%eax
  10062a:	3d 00 02 00 00       	cmp    $0x200,%eax
  10062f:	75 0a                	jne    10063b <cons_getc+0x4f>
			s_consin.rpos = 0;
  100631:	c7 05 00 42 18 00 00 	movl   $0x0,0x184200
  100638:	00 00 00 
		return c;
  10063b:	8b 45 f4             	mov    -0xc(%ebp),%eax
  10063e:	eb 05                	jmp    100645 <cons_getc+0x59>
	}
	return 0;
  100640:	b8 00 00 00 00       	mov    $0x0,%eax
}
  100645:	c9                   	leave  
  100646:	c3                   	ret    

00100647 <cons_putc>:

// output a character to the console
static void
cons_putc(int c)
{
  100647:	55                   	push   %ebp
  100648:	89 e5                	mov    %esp,%ebp
  10064a:	83 ec 18             	sub    $0x18,%esp
	serial_putc(c);
  10064d:	8b 45 08             	mov    0x8(%ebp),%eax
  100650:	89 04 24             	mov    %eax,(%esp)
  100653:	e8 cf 81 00 00       	call   108827 <serial_putc>
	video_putc(c);
  100658:	8b 45 08             	mov    0x8(%ebp),%eax
  10065b:	89 04 24             	mov    %eax,(%esp)
  10065e:	e8 02 7d 00 00       	call   108365 <video_putc>
}
  100663:	c9                   	leave  
  100664:	c3                   	ret    

00100665 <cons_init>:

// initialize the console devices
void
cons_init(void)
{
  100665:	55                   	push   %ebp
  100666:	89 e5                	mov    %esp,%ebp
  100668:	83 ec 18             	sub    $0x18,%esp
	if (!cpu_onboot())	// only do once, on the boot CPU
  10066b:	e8 fa fe ff ff       	call   10056a <cpu_onboot>
  100670:	85 c0                	test   %eax,%eax
  100672:	74 52                	je     1006c6 <cons_init+0x61>
		return;

	spinlock_init(&cons_lock);
  100674:	c7 44 24 08 72 00 00 	movl   $0x72,0x8(%esp)
  10067b:	00 
  10067c:	c7 44 24 04 62 a2 10 	movl   $0x10a262,0x4(%esp)
  100683:	00 
  100684:	c7 04 24 00 8f 18 00 	movl   $0x188f00,(%esp)
  10068b:	e8 37 23 00 00       	call   1029c7 <spinlock_init_>
	video_init();
  100690:	e8 f3 7b 00 00       	call   108288 <video_init>
	kbd_init();
  100695:	e8 8c 80 00 00       	call   108726 <kbd_init>
	serial_init();
  10069a:	e8 f8 81 00 00       	call   108897 <serial_init>

	if (!serial_exists)
  10069f:	a1 00 c0 38 00       	mov    0x38c000,%eax
  1006a4:	85 c0                	test   %eax,%eax
  1006a6:	75 1f                	jne    1006c7 <cons_init+0x62>
		warn("Serial port does not exist!\n");
  1006a8:	c7 44 24 08 6e a2 10 	movl   $0x10a26e,0x8(%esp)
  1006af:	00 
  1006b0:	c7 44 24 04 78 00 00 	movl   $0x78,0x4(%esp)
  1006b7:	00 
  1006b8:	c7 04 24 62 a2 10 00 	movl   $0x10a262,(%esp)
  1006bf:	e8 3a 03 00 00       	call   1009fe <debug_warn>
  1006c4:	eb 01                	jmp    1006c7 <cons_init+0x62>
// initialize the console devices
void
cons_init(void)
{
	if (!cpu_onboot())	// only do once, on the boot CPU
		return;
  1006c6:	90                   	nop
	kbd_init();
	serial_init();

	if (!serial_exists)
		warn("Serial port does not exist!\n");
}
  1006c7:	c9                   	leave  
  1006c8:	c3                   	ret    

001006c9 <cons_intenable>:

// Enable console interrupts.
void
cons_intenable(void)
{
  1006c9:	55                   	push   %ebp
  1006ca:	89 e5                	mov    %esp,%ebp
  1006cc:	83 ec 08             	sub    $0x8,%esp
	if (!cpu_onboot())	// only do once, on the boot CPU
  1006cf:	e8 96 fe ff ff       	call   10056a <cpu_onboot>
  1006d4:	85 c0                	test   %eax,%eax
  1006d6:	74 0c                	je     1006e4 <cons_intenable+0x1b>
		return;

	kbd_intenable();
  1006d8:	e8 4e 80 00 00       	call   10872b <kbd_intenable>
	serial_intenable();
  1006dd:	e8 9a 82 00 00       	call   10897c <serial_intenable>
  1006e2:	eb 01                	jmp    1006e5 <cons_intenable+0x1c>
// Enable console interrupts.
void
cons_intenable(void)
{
	if (!cpu_onboot())	// only do once, on the boot CPU
		return;
  1006e4:	90                   	nop

	kbd_intenable();
	serial_intenable();
}
  1006e5:	c9                   	leave  
  1006e6:	c3                   	ret    

001006e7 <cputs>:

// `High'-level console I/O.  Used by readline and cprintf.
void
cputs(const char *str)
{
  1006e7:	55                   	push   %ebp
  1006e8:	89 e5                	mov    %esp,%ebp
  1006ea:	53                   	push   %ebx
  1006eb:	83 ec 24             	sub    $0x24,%esp

static gcc_inline uint16_t
read_cs(void)
{
        uint16_t cs;
        __asm __volatile("movw %%cs,%0" : "=rm" (cs));
  1006ee:	66 8c cb             	mov    %cs,%bx
  1006f1:	66 89 5d f2          	mov    %bx,-0xe(%ebp)
        return cs;
  1006f5:	0f b7 45 f2          	movzwl -0xe(%ebp),%eax
	if (read_cs() & 3)
  1006f9:	0f b7 c0             	movzwl %ax,%eax
  1006fc:	83 e0 03             	and    $0x3,%eax
  1006ff:	85 c0                	test   %eax,%eax
  100701:	74 14                	je     100717 <cputs+0x30>
  100703:	8b 45 08             	mov    0x8(%ebp),%eax
  100706:	89 45 ec             	mov    %eax,-0x14(%ebp)
	// 
	// The last clause tells the assembler that this can
	// potentially change the condition codes and arbitrary
	// memory locations.

	asm volatile("int %0" :
  100709:	b8 00 00 00 00       	mov    $0x0,%eax
  10070e:	8b 55 ec             	mov    -0x14(%ebp),%edx
  100711:	89 d3                	mov    %edx,%ebx
  100713:	cd 30                	int    $0x30
		return sys_cputs(str);	// use syscall from user mode
  100715:	eb 57                	jmp    10076e <cputs+0x87>

	// Hold the console spinlock while printing the entire string,
	// so that the output of different cputs calls won't get mixed.
	// Implement ad hoc recursive locking for debugging convenience.
	bool already = spinlock_holding(&cons_lock);
  100717:	c7 04 24 00 8f 18 00 	movl   $0x188f00,(%esp)
  10071e:	e8 9d 23 00 00       	call   102ac0 <spinlock_holding>
  100723:	89 45 f4             	mov    %eax,-0xc(%ebp)
	if (!already)
  100726:	83 7d f4 00          	cmpl   $0x0,-0xc(%ebp)
  10072a:	75 25                	jne    100751 <cputs+0x6a>
		spinlock_acquire(&cons_lock);
  10072c:	c7 04 24 00 8f 18 00 	movl   $0x188f00,(%esp)
  100733:	e8 b9 22 00 00       	call   1029f1 <spinlock_acquire>

	char ch;
	while (*str)
  100738:	eb 17                	jmp    100751 <cputs+0x6a>
		cons_putc(*str++);
  10073a:	8b 45 08             	mov    0x8(%ebp),%eax
  10073d:	0f b6 00             	movzbl (%eax),%eax
  100740:	0f be c0             	movsbl %al,%eax
  100743:	83 45 08 01          	addl   $0x1,0x8(%ebp)
  100747:	89 04 24             	mov    %eax,(%esp)
  10074a:	e8 f8 fe ff ff       	call   100647 <cons_putc>
  10074f:	eb 01                	jmp    100752 <cputs+0x6b>
	bool already = spinlock_holding(&cons_lock);
	if (!already)
		spinlock_acquire(&cons_lock);

	char ch;
	while (*str)
  100751:	90                   	nop
  100752:	8b 45 08             	mov    0x8(%ebp),%eax
  100755:	0f b6 00             	movzbl (%eax),%eax
  100758:	84 c0                	test   %al,%al
  10075a:	75 de                	jne    10073a <cputs+0x53>
		cons_putc(*str++);

	if (!already)
  10075c:	83 7d f4 00          	cmpl   $0x0,-0xc(%ebp)
  100760:	75 0c                	jne    10076e <cputs+0x87>
		spinlock_release(&cons_lock);
  100762:	c7 04 24 00 8f 18 00 	movl   $0x188f00,(%esp)
  100769:	e8 f8 22 00 00       	call   102a66 <spinlock_release>
}
  10076e:	83 c4 24             	add    $0x24,%esp
  100771:	5b                   	pop    %ebx
  100772:	5d                   	pop    %ebp
  100773:	c3                   	ret    

00100774 <cons_io>:

// Synchronize the root process's console special files
// with the actual console I/O device.
bool
cons_io(void)
{
  100774:	55                   	push   %ebp
  100775:	89 e5                	mov    %esp,%ebp
  100777:	83 ec 38             	sub    $0x38,%esp
	// Lab 4: your console I/O code here.
	//warn("cons_io() not implemented");
	fileinode* stdout = &files->fi[FILEINO_CONSOUT];
  10077a:	a1 50 bd 10 00       	mov    0x10bd50,%eax
  10077f:	05 c8 10 00 00       	add    $0x10c8,%eax
  100784:	89 45 e4             	mov    %eax,-0x1c(%ebp)
	fileinode* stdin = &files->fi[FILEINO_CONSIN];
  100787:	a1 50 bd 10 00       	mov    0x10bd50,%eax
  10078c:	05 6c 10 00 00       	add    $0x106c,%eax
  100791:	89 45 e0             	mov    %eax,-0x20(%ebp)
	int status = 0;
  100794:	c7 45 f4 00 00 00 00 	movl   $0x0,-0xc(%ebp)
	int ind = 0;
  10079b:	c7 45 f0 00 00 00 00 	movl   $0x0,-0x10(%ebp)
	spinlock_acquire(&cons_lock);
  1007a2:	c7 04 24 00 8f 18 00 	movl   $0x188f00,(%esp)
  1007a9:	e8 43 22 00 00       	call   1029f1 <spinlock_acquire>
	if(s_consout.wpos < stdout->size){
  1007ae:	8b 15 24 44 18 00    	mov    0x184424,%edx
  1007b4:	8b 45 e4             	mov    -0x1c(%ebp),%eax
  1007b7:	8b 40 4c             	mov    0x4c(%eax),%eax
  1007ba:	39 c2                	cmp    %eax,%edx
  1007bc:	0f 83 f5 00 00 00    	jae    1008b7 <cons_io+0x143>
		while(s_consout.wpos < stdout->size){
  1007c2:	e9 81 00 00 00       	jmp    100848 <cons_io+0xd4>
			if(ind >= CONSBUFSIZE){
  1007c7:	81 7d f0 ff 01 00 00 	cmpl   $0x1ff,-0x10(%ebp)
  1007ce:	7e 4f                	jle    10081f <cons_io+0xab>
				int n = 0;
  1007d0:	c7 45 ec 00 00 00 00 	movl   $0x0,-0x14(%ebp)
				//cputs((char*)s_consout.buf);
				for(n; n < CONSBUFSIZE; n++){
  1007d7:	eb 1a                	jmp    1007f3 <cons_io+0x7f>
					cons_putc(s_consout.buf[n]);
  1007d9:	8b 45 ec             	mov    -0x14(%ebp),%eax
  1007dc:	05 20 42 18 00       	add    $0x184220,%eax
  1007e1:	0f b6 00             	movzbl (%eax),%eax
  1007e4:	0f b6 c0             	movzbl %al,%eax
  1007e7:	89 04 24             	mov    %eax,(%esp)
  1007ea:	e8 58 fe ff ff       	call   100647 <cons_putc>
	if(s_consout.wpos < stdout->size){
		while(s_consout.wpos < stdout->size){
			if(ind >= CONSBUFSIZE){
				int n = 0;
				//cputs((char*)s_consout.buf);
				for(n; n < CONSBUFSIZE; n++){
  1007ef:	83 45 ec 01          	addl   $0x1,-0x14(%ebp)
  1007f3:	81 7d ec ff 01 00 00 	cmpl   $0x1ff,-0x14(%ebp)
  1007fa:	7e dd                	jle    1007d9 <cons_io+0x65>
					cons_putc(s_consout.buf[n]);
				}
				memset(s_consout.buf,0,CONSBUFSIZE);
  1007fc:	c7 44 24 08 00 02 00 	movl   $0x200,0x8(%esp)
  100803:	00 
  100804:	c7 44 24 04 00 00 00 	movl   $0x0,0x4(%esp)
  10080b:	00 
  10080c:	c7 04 24 20 42 18 00 	movl   $0x184220,(%esp)
  100813:	e8 29 94 00 00       	call   109c41 <memset>
				ind = 0;
  100818:	c7 45 f0 00 00 00 00 	movl   $0x0,-0x10(%ebp)
			}
			s_consout.buf[ind++] = *(uint8_t*)((uint32_t)FILEDATA(FILEINO_CONSOUT) + s_consout.wpos);
  10081f:	a1 24 44 18 00       	mov    0x184424,%eax
  100824:	2d 00 00 80 7f       	sub    $0x7f800000,%eax
  100829:	0f b6 00             	movzbl (%eax),%eax
  10082c:	8b 55 f0             	mov    -0x10(%ebp),%edx
  10082f:	81 c2 20 42 18 00    	add    $0x184220,%edx
  100835:	88 02                	mov    %al,(%edx)
  100837:	83 45 f0 01          	addl   $0x1,-0x10(%ebp)
			s_consout.wpos++;
  10083b:	a1 24 44 18 00       	mov    0x184424,%eax
  100840:	83 c0 01             	add    $0x1,%eax
  100843:	a3 24 44 18 00       	mov    %eax,0x184424
	fileinode* stdin = &files->fi[FILEINO_CONSIN];
	int status = 0;
	int ind = 0;
	spinlock_acquire(&cons_lock);
	if(s_consout.wpos < stdout->size){
		while(s_consout.wpos < stdout->size){
  100848:	8b 15 24 44 18 00    	mov    0x184424,%edx
  10084e:	8b 45 e4             	mov    -0x1c(%ebp),%eax
  100851:	8b 40 4c             	mov    0x4c(%eax),%eax
  100854:	39 c2                	cmp    %eax,%edx
  100856:	0f 82 6b ff ff ff    	jb     1007c7 <cons_io+0x53>
				ind = 0;
			}
			s_consout.buf[ind++] = *(uint8_t*)((uint32_t)FILEDATA(FILEINO_CONSOUT) + s_consout.wpos);
			s_consout.wpos++;
		}
		if(ind > 0){
  10085c:	83 7d f0 00          	cmpl   $0x0,-0x10(%ebp)
  100860:	7e 4e                	jle    1008b0 <cons_io+0x13c>
			int n = 0;
  100862:	c7 45 e8 00 00 00 00 	movl   $0x0,-0x18(%ebp)
			//cputs((char*)s_consout.buf);
			for(n; n < ind; n++){
  100869:	eb 1a                	jmp    100885 <cons_io+0x111>
					cons_putc(s_consout.buf[n]);
  10086b:	8b 45 e8             	mov    -0x18(%ebp),%eax
  10086e:	05 20 42 18 00       	add    $0x184220,%eax
  100873:	0f b6 00             	movzbl (%eax),%eax
  100876:	0f b6 c0             	movzbl %al,%eax
  100879:	89 04 24             	mov    %eax,(%esp)
  10087c:	e8 c6 fd ff ff       	call   100647 <cons_putc>
			s_consout.wpos++;
		}
		if(ind > 0){
			int n = 0;
			//cputs((char*)s_consout.buf);
			for(n; n < ind; n++){
  100881:	83 45 e8 01          	addl   $0x1,-0x18(%ebp)
  100885:	8b 45 e8             	mov    -0x18(%ebp),%eax
  100888:	3b 45 f0             	cmp    -0x10(%ebp),%eax
  10088b:	7c de                	jl     10086b <cons_io+0xf7>
					cons_putc(s_consout.buf[n]);
				}
			memset(s_consout.buf,0,CONSBUFSIZE);
  10088d:	c7 44 24 08 00 02 00 	movl   $0x200,0x8(%esp)
  100894:	00 
  100895:	c7 44 24 04 00 00 00 	movl   $0x0,0x4(%esp)
  10089c:	00 
  10089d:	c7 04 24 20 42 18 00 	movl   $0x184220,(%esp)
  1008a4:	e8 98 93 00 00       	call   109c41 <memset>
			ind = 0;
  1008a9:	c7 45 f0 00 00 00 00 	movl   $0x0,-0x10(%ebp)
		}
		status = 1;
  1008b0:	c7 45 f4 01 00 00 00 	movl   $0x1,-0xc(%ebp)
	}
	if(s_consin.rpos != s_consin.wpos){
  1008b7:	8b 15 00 42 18 00    	mov    0x184200,%edx
  1008bd:	a1 04 42 18 00       	mov    0x184204,%eax
  1008c2:	39 c2                	cmp    %eax,%edx
  1008c4:	74 60                	je     100926 <cons_io+0x1b2>
		while(s_consin.rpos != s_consin.wpos){
  1008c6:	eb 48                	jmp    100910 <cons_io+0x19c>
			memcpy((void*)fi_read_pos, &s_consin.buf[s_consin.rpos++], 1);
  1008c8:	a1 00 42 18 00       	mov    0x184200,%eax
  1008cd:	8d 90 00 40 18 00    	lea    0x184000(%eax),%edx
  1008d3:	83 c0 01             	add    $0x1,%eax
  1008d6:	a3 00 42 18 00       	mov    %eax,0x184200
  1008db:	a1 04 e0 10 00       	mov    0x10e004,%eax
  1008e0:	c7 44 24 08 01 00 00 	movl   $0x1,0x8(%esp)
  1008e7:	00 
  1008e8:	89 54 24 04          	mov    %edx,0x4(%esp)
  1008ec:	89 04 24             	mov    %eax,(%esp)
  1008ef:	e8 95 94 00 00       	call   109d89 <memcpy>
			fi_read_pos++;
  1008f4:	a1 04 e0 10 00       	mov    0x10e004,%eax
  1008f9:	83 c0 01             	add    $0x1,%eax
  1008fc:	a3 04 e0 10 00       	mov    %eax,0x10e004
			stdin->size++;
  100901:	8b 45 e0             	mov    -0x20(%ebp),%eax
  100904:	8b 40 4c             	mov    0x4c(%eax),%eax
  100907:	8d 50 01             	lea    0x1(%eax),%edx
  10090a:	8b 45 e0             	mov    -0x20(%ebp),%eax
  10090d:	89 50 4c             	mov    %edx,0x4c(%eax)
			ind = 0;
		}
		status = 1;
	}
	if(s_consin.rpos != s_consin.wpos){
		while(s_consin.rpos != s_consin.wpos){
  100910:	8b 15 00 42 18 00    	mov    0x184200,%edx
  100916:	a1 04 42 18 00       	mov    0x184204,%eax
  10091b:	39 c2                	cmp    %eax,%edx
  10091d:	75 a9                	jne    1008c8 <cons_io+0x154>
			memcpy((void*)fi_read_pos, &s_consin.buf[s_consin.rpos++], 1);
			fi_read_pos++;
			stdin->size++;
		}
		status = 1;
  10091f:	c7 45 f4 01 00 00 00 	movl   $0x1,-0xc(%ebp)
	}
	spinlock_release(&cons_lock);
  100926:	c7 04 24 00 8f 18 00 	movl   $0x188f00,(%esp)
  10092d:	e8 34 21 00 00       	call   102a66 <spinlock_release>
	return status;	// 0 indicates no I/O done
  100932:	8b 45 f4             	mov    -0xc(%ebp),%eax
}
  100935:	c9                   	leave  
  100936:	c3                   	ret    
  100937:	90                   	nop

00100938 <debug_panic>:

// Panic is called on unresolvable fatal errors.
// It prints "panic: mesg", and then enters the kernel monitor.
void
debug_panic(const char *file, int line, const char *fmt,...)
{
  100938:	55                   	push   %ebp
  100939:	89 e5                	mov    %esp,%ebp
  10093b:	53                   	push   %ebx
  10093c:	83 ec 54             	sub    $0x54,%esp

static gcc_inline uint16_t
read_cs(void)
{
        uint16_t cs;
        __asm __volatile("movw %%cs,%0" : "=rm" (cs));
  10093f:	66 8c cb             	mov    %cs,%bx
  100942:	66 89 5d ee          	mov    %bx,-0x12(%ebp)
        return cs;
  100946:	0f b7 45 ee          	movzwl -0x12(%ebp),%eax
	va_list ap;
	int i;

	// Avoid infinite recursion if we're panicking from kernel mode.
	if ((read_cs() & 3) == 0) {
  10094a:	0f b7 c0             	movzwl %ax,%eax
  10094d:	83 e0 03             	and    $0x3,%eax
  100950:	85 c0                	test   %eax,%eax
  100952:	75 15                	jne    100969 <debug_panic+0x31>
		if (panicstr)
  100954:	a1 28 44 18 00       	mov    0x184428,%eax
  100959:	85 c0                	test   %eax,%eax
  10095b:	0f 85 97 00 00 00    	jne    1009f8 <debug_panic+0xc0>
			goto dead;
		panicstr = fmt;
  100961:	8b 45 10             	mov    0x10(%ebp),%eax
  100964:	a3 28 44 18 00       	mov    %eax,0x184428
	}

	// First print the requested message
	va_start(ap, fmt);
  100969:	8d 45 10             	lea    0x10(%ebp),%eax
  10096c:	83 c0 04             	add    $0x4,%eax
  10096f:	89 45 f0             	mov    %eax,-0x10(%ebp)
	cprintf("kernel panic at %s:%d: ", file, line);
  100972:	8b 45 0c             	mov    0xc(%ebp),%eax
  100975:	89 44 24 08          	mov    %eax,0x8(%esp)
  100979:	8b 45 08             	mov    0x8(%ebp),%eax
  10097c:	89 44 24 04          	mov    %eax,0x4(%esp)
  100980:	c7 04 24 8b a2 10 00 	movl   $0x10a28b,(%esp)
  100987:	e8 44 8f 00 00       	call   1098d0 <cprintf>
	vcprintf(fmt, ap);
  10098c:	8b 45 10             	mov    0x10(%ebp),%eax
  10098f:	8b 55 f0             	mov    -0x10(%ebp),%edx
  100992:	89 54 24 04          	mov    %edx,0x4(%esp)
  100996:	89 04 24             	mov    %eax,(%esp)
  100999:	e8 ca 8e 00 00       	call   109868 <vcprintf>
	cprintf("\n");
  10099e:	c7 04 24 a3 a2 10 00 	movl   $0x10a2a3,(%esp)
  1009a5:	e8 26 8f 00 00       	call   1098d0 <cprintf>

static gcc_inline uint32_t
read_ebp(void)
{
        uint32_t ebp;
        __asm __volatile("movl %%ebp,%0" : "=rm" (ebp));
  1009aa:	89 eb                	mov    %ebp,%ebx
  1009ac:	89 5d e8             	mov    %ebx,-0x18(%ebp)
        return ebp;
  1009af:	8b 45 e8             	mov    -0x18(%ebp),%eax
	va_end(ap);

	// Then print a backtrace of the kernel call chain
	uint32_t eips[DEBUG_TRACEFRAMES];
	debug_trace(read_ebp(), eips);
  1009b2:	8d 55 c0             	lea    -0x40(%ebp),%edx
  1009b5:	89 54 24 04          	mov    %edx,0x4(%esp)
  1009b9:	89 04 24             	mov    %eax,(%esp)
  1009bc:	e8 86 00 00 00       	call   100a47 <debug_trace>
	for (i = 0; i < DEBUG_TRACEFRAMES && eips[i] != 0; i++)
  1009c1:	c7 45 f4 00 00 00 00 	movl   $0x0,-0xc(%ebp)
  1009c8:	eb 1b                	jmp    1009e5 <debug_panic+0xad>
		cprintf("  from %08x\n", eips[i]);
  1009ca:	8b 45 f4             	mov    -0xc(%ebp),%eax
  1009cd:	8b 44 85 c0          	mov    -0x40(%ebp,%eax,4),%eax
  1009d1:	89 44 24 04          	mov    %eax,0x4(%esp)
  1009d5:	c7 04 24 a5 a2 10 00 	movl   $0x10a2a5,(%esp)
  1009dc:	e8 ef 8e 00 00       	call   1098d0 <cprintf>
	va_end(ap);

	// Then print a backtrace of the kernel call chain
	uint32_t eips[DEBUG_TRACEFRAMES];
	debug_trace(read_ebp(), eips);
	for (i = 0; i < DEBUG_TRACEFRAMES && eips[i] != 0; i++)
  1009e1:	83 45 f4 01          	addl   $0x1,-0xc(%ebp)
  1009e5:	83 7d f4 09          	cmpl   $0x9,-0xc(%ebp)
  1009e9:	7f 0e                	jg     1009f9 <debug_panic+0xc1>
  1009eb:	8b 45 f4             	mov    -0xc(%ebp),%eax
  1009ee:	8b 44 85 c0          	mov    -0x40(%ebp,%eax,4),%eax
  1009f2:	85 c0                	test   %eax,%eax
  1009f4:	75 d4                	jne    1009ca <debug_panic+0x92>
  1009f6:	eb 01                	jmp    1009f9 <debug_panic+0xc1>
	int i;

	// Avoid infinite recursion if we're panicking from kernel mode.
	if ((read_cs() & 3) == 0) {
		if (panicstr)
			goto dead;
  1009f8:	90                   	nop
	debug_trace(read_ebp(), eips);
	for (i = 0; i < DEBUG_TRACEFRAMES && eips[i] != 0; i++)
		cprintf("  from %08x\n", eips[i]);

dead:
	done();		// enter infinite loop (see kern/init.c)
  1009f9:	e8 64 f8 ff ff       	call   100262 <done>

001009fe <debug_warn>:
}

/* like panic, but don't */
void
debug_warn(const char *file, int line, const char *fmt,...)
{
  1009fe:	55                   	push   %ebp
  1009ff:	89 e5                	mov    %esp,%ebp
  100a01:	83 ec 28             	sub    $0x28,%esp
	va_list ap;

	va_start(ap, fmt);
  100a04:	8d 45 10             	lea    0x10(%ebp),%eax
  100a07:	83 c0 04             	add    $0x4,%eax
  100a0a:	89 45 f4             	mov    %eax,-0xc(%ebp)
	cprintf("kernel warning at %s:%d: ", file, line);
  100a0d:	8b 45 0c             	mov    0xc(%ebp),%eax
  100a10:	89 44 24 08          	mov    %eax,0x8(%esp)
  100a14:	8b 45 08             	mov    0x8(%ebp),%eax
  100a17:	89 44 24 04          	mov    %eax,0x4(%esp)
  100a1b:	c7 04 24 b2 a2 10 00 	movl   $0x10a2b2,(%esp)
  100a22:	e8 a9 8e 00 00       	call   1098d0 <cprintf>
	vcprintf(fmt, ap);
  100a27:	8b 45 10             	mov    0x10(%ebp),%eax
  100a2a:	8b 55 f4             	mov    -0xc(%ebp),%edx
  100a2d:	89 54 24 04          	mov    %edx,0x4(%esp)
  100a31:	89 04 24             	mov    %eax,(%esp)
  100a34:	e8 2f 8e 00 00       	call   109868 <vcprintf>
	cprintf("\n");
  100a39:	c7 04 24 a3 a2 10 00 	movl   $0x10a2a3,(%esp)
  100a40:	e8 8b 8e 00 00       	call   1098d0 <cprintf>
	va_end(ap);
}
  100a45:	c9                   	leave  
  100a46:	c3                   	ret    

00100a47 <debug_trace>:

// Record the current call stack in eips[] by following the %ebp chain.
void gcc_noinline
debug_trace(uint32_t ebp, uint32_t eips[DEBUG_TRACEFRAMES])
{
  100a47:	55                   	push   %ebp
  100a48:	89 e5                	mov    %esp,%ebp
  100a4a:	83 ec 10             	sub    $0x10,%esp
	int i ,j;
	uint32_t *cur_epb = (uint32_t *)ebp;
  100a4d:	8b 45 08             	mov    0x8(%ebp),%eax
  100a50:	89 45 f4             	mov    %eax,-0xc(%ebp)
	//cprintf("Stack backtrace:\n");
	for(i = 0; i < DEBUG_TRACEFRAMES && cur_epb > 0; i++) {
  100a53:	c7 45 fc 00 00 00 00 	movl   $0x0,-0x4(%ebp)
  100a5a:	eb 36                	jmp    100a92 <debug_trace+0x4b>
		//cprintf("  ebp %08x eip %08x args",cur_epb[0],cur_epb[1]);
		eips[i] = cur_epb[1];
  100a5c:	8b 45 fc             	mov    -0x4(%ebp),%eax
  100a5f:	8d 14 85 00 00 00 00 	lea    0x0(,%eax,4),%edx
  100a66:	8b 45 0c             	mov    0xc(%ebp),%eax
  100a69:	01 c2                	add    %eax,%edx
  100a6b:	8b 45 f4             	mov    -0xc(%ebp),%eax
  100a6e:	8b 40 04             	mov    0x4(%eax),%eax
  100a71:	89 02                	mov    %eax,(%edx)
		for(j = 0; j < 5; j++) {
  100a73:	c7 45 f8 00 00 00 00 	movl   $0x0,-0x8(%ebp)
  100a7a:	eb 04                	jmp    100a80 <debug_trace+0x39>
  100a7c:	83 45 f8 01          	addl   $0x1,-0x8(%ebp)
  100a80:	83 7d f8 04          	cmpl   $0x4,-0x8(%ebp)
  100a84:	7e f6                	jle    100a7c <debug_trace+0x35>
			//cprintf(" %08x",cur_epb[2 + j]);
		}
		//cprintf("\n");
		cur_epb = (uint32_t *)(*cur_epb);
  100a86:	8b 45 f4             	mov    -0xc(%ebp),%eax
  100a89:	8b 00                	mov    (%eax),%eax
  100a8b:	89 45 f4             	mov    %eax,-0xc(%ebp)
debug_trace(uint32_t ebp, uint32_t eips[DEBUG_TRACEFRAMES])
{
	int i ,j;
	uint32_t *cur_epb = (uint32_t *)ebp;
	//cprintf("Stack backtrace:\n");
	for(i = 0; i < DEBUG_TRACEFRAMES && cur_epb > 0; i++) {
  100a8e:	83 45 fc 01          	addl   $0x1,-0x4(%ebp)
  100a92:	83 7d fc 09          	cmpl   $0x9,-0x4(%ebp)
  100a96:	7f 21                	jg     100ab9 <debug_trace+0x72>
  100a98:	83 7d f4 00          	cmpl   $0x0,-0xc(%ebp)
  100a9c:	75 be                	jne    100a5c <debug_trace+0x15>
			//cprintf(" %08x",cur_epb[2 + j]);
		}
		//cprintf("\n");
		cur_epb = (uint32_t *)(*cur_epb);
	}
	for(; i < DEBUG_TRACEFRAMES ; i++) {
  100a9e:	eb 19                	jmp    100ab9 <debug_trace+0x72>
		eips[i] = 0;
  100aa0:	8b 45 fc             	mov    -0x4(%ebp),%eax
  100aa3:	8d 14 85 00 00 00 00 	lea    0x0(,%eax,4),%edx
  100aaa:	8b 45 0c             	mov    0xc(%ebp),%eax
  100aad:	01 d0                	add    %edx,%eax
  100aaf:	c7 00 00 00 00 00    	movl   $0x0,(%eax)
			//cprintf(" %08x",cur_epb[2 + j]);
		}
		//cprintf("\n");
		cur_epb = (uint32_t *)(*cur_epb);
	}
	for(; i < DEBUG_TRACEFRAMES ; i++) {
  100ab5:	83 45 fc 01          	addl   $0x1,-0x4(%ebp)
  100ab9:	83 7d fc 09          	cmpl   $0x9,-0x4(%ebp)
  100abd:	7e e1                	jle    100aa0 <debug_trace+0x59>
		eips[i] = 0;
	}
}
  100abf:	c9                   	leave  
  100ac0:	c3                   	ret    

00100ac1 <f3>:


static void gcc_noinline f3(int r, uint32_t *e) { debug_trace(read_ebp(), e); }
  100ac1:	55                   	push   %ebp
  100ac2:	89 e5                	mov    %esp,%ebp
  100ac4:	53                   	push   %ebx
  100ac5:	83 ec 18             	sub    $0x18,%esp

static gcc_inline uint32_t
read_ebp(void)
{
        uint32_t ebp;
        __asm __volatile("movl %%ebp,%0" : "=rm" (ebp));
  100ac8:	89 eb                	mov    %ebp,%ebx
  100aca:	89 5d f8             	mov    %ebx,-0x8(%ebp)
        return ebp;
  100acd:	8b 45 f8             	mov    -0x8(%ebp),%eax
  100ad0:	8b 55 0c             	mov    0xc(%ebp),%edx
  100ad3:	89 54 24 04          	mov    %edx,0x4(%esp)
  100ad7:	89 04 24             	mov    %eax,(%esp)
  100ada:	e8 68 ff ff ff       	call   100a47 <debug_trace>
  100adf:	83 c4 18             	add    $0x18,%esp
  100ae2:	5b                   	pop    %ebx
  100ae3:	5d                   	pop    %ebp
  100ae4:	c3                   	ret    

00100ae5 <f2>:
static void gcc_noinline f2(int r, uint32_t *e) { r & 2 ? f3(r,e) : f3(r,e); }
  100ae5:	55                   	push   %ebp
  100ae6:	89 e5                	mov    %esp,%ebp
  100ae8:	83 ec 08             	sub    $0x8,%esp
  100aeb:	8b 45 08             	mov    0x8(%ebp),%eax
  100aee:	83 e0 02             	and    $0x2,%eax
  100af1:	85 c0                	test   %eax,%eax
  100af3:	74 14                	je     100b09 <f2+0x24>
  100af5:	8b 45 0c             	mov    0xc(%ebp),%eax
  100af8:	89 44 24 04          	mov    %eax,0x4(%esp)
  100afc:	8b 45 08             	mov    0x8(%ebp),%eax
  100aff:	89 04 24             	mov    %eax,(%esp)
  100b02:	e8 ba ff ff ff       	call   100ac1 <f3>
  100b07:	eb 12                	jmp    100b1b <f2+0x36>
  100b09:	8b 45 0c             	mov    0xc(%ebp),%eax
  100b0c:	89 44 24 04          	mov    %eax,0x4(%esp)
  100b10:	8b 45 08             	mov    0x8(%ebp),%eax
  100b13:	89 04 24             	mov    %eax,(%esp)
  100b16:	e8 a6 ff ff ff       	call   100ac1 <f3>
  100b1b:	c9                   	leave  
  100b1c:	c3                   	ret    

00100b1d <f1>:
static void gcc_noinline f1(int r, uint32_t *e) { r & 1 ? f2(r,e) : f2(r,e); }
  100b1d:	55                   	push   %ebp
  100b1e:	89 e5                	mov    %esp,%ebp
  100b20:	83 ec 08             	sub    $0x8,%esp
  100b23:	8b 45 08             	mov    0x8(%ebp),%eax
  100b26:	83 e0 01             	and    $0x1,%eax
  100b29:	85 c0                	test   %eax,%eax
  100b2b:	74 14                	je     100b41 <f1+0x24>
  100b2d:	8b 45 0c             	mov    0xc(%ebp),%eax
  100b30:	89 44 24 04          	mov    %eax,0x4(%esp)
  100b34:	8b 45 08             	mov    0x8(%ebp),%eax
  100b37:	89 04 24             	mov    %eax,(%esp)
  100b3a:	e8 a6 ff ff ff       	call   100ae5 <f2>
  100b3f:	eb 12                	jmp    100b53 <f1+0x36>
  100b41:	8b 45 0c             	mov    0xc(%ebp),%eax
  100b44:	89 44 24 04          	mov    %eax,0x4(%esp)
  100b48:	8b 45 08             	mov    0x8(%ebp),%eax
  100b4b:	89 04 24             	mov    %eax,(%esp)
  100b4e:	e8 92 ff ff ff       	call   100ae5 <f2>
  100b53:	c9                   	leave  
  100b54:	c3                   	ret    

00100b55 <debug_check>:

// Test the backtrace implementation for correct operation
void
debug_check(void)
{
  100b55:	55                   	push   %ebp
  100b56:	89 e5                	mov    %esp,%ebp
  100b58:	81 ec c8 00 00 00    	sub    $0xc8,%esp
	uint32_t eips[4][DEBUG_TRACEFRAMES];
	int r, i;

	// produce several related backtraces...
	for (i = 0; i < 4; i++)
  100b5e:	c7 45 f0 00 00 00 00 	movl   $0x0,-0x10(%ebp)
  100b65:	eb 28                	jmp    100b8f <debug_check+0x3a>
		f1(i, eips[i]);
  100b67:	8d 8d 50 ff ff ff    	lea    -0xb0(%ebp),%ecx
  100b6d:	8b 55 f0             	mov    -0x10(%ebp),%edx
  100b70:	89 d0                	mov    %edx,%eax
  100b72:	c1 e0 02             	shl    $0x2,%eax
  100b75:	01 d0                	add    %edx,%eax
  100b77:	c1 e0 03             	shl    $0x3,%eax
  100b7a:	01 c8                	add    %ecx,%eax
  100b7c:	89 44 24 04          	mov    %eax,0x4(%esp)
  100b80:	8b 45 f0             	mov    -0x10(%ebp),%eax
  100b83:	89 04 24             	mov    %eax,(%esp)
  100b86:	e8 92 ff ff ff       	call   100b1d <f1>
{
	uint32_t eips[4][DEBUG_TRACEFRAMES];
	int r, i;

	// produce several related backtraces...
	for (i = 0; i < 4; i++)
  100b8b:	83 45 f0 01          	addl   $0x1,-0x10(%ebp)
  100b8f:	83 7d f0 03          	cmpl   $0x3,-0x10(%ebp)
  100b93:	7e d2                	jle    100b67 <debug_check+0x12>
		f1(i, eips[i]);

	// ...and make sure they come out correctly.
	for (r = 0; r < 4; r++)
  100b95:	c7 45 f4 00 00 00 00 	movl   $0x0,-0xc(%ebp)
  100b9c:	e9 bc 00 00 00       	jmp    100c5d <debug_check+0x108>
		for (i = 0; i < DEBUG_TRACEFRAMES; i++) {
  100ba1:	c7 45 f0 00 00 00 00 	movl   $0x0,-0x10(%ebp)
  100ba8:	e9 a2 00 00 00       	jmp    100c4f <debug_check+0xfa>
			assert((eips[r][i] != 0) == (i < 5));
  100bad:	8b 55 f4             	mov    -0xc(%ebp),%edx
  100bb0:	89 d0                	mov    %edx,%eax
  100bb2:	c1 e0 02             	shl    $0x2,%eax
  100bb5:	01 d0                	add    %edx,%eax
  100bb7:	01 c0                	add    %eax,%eax
  100bb9:	8b 55 f0             	mov    -0x10(%ebp),%edx
  100bbc:	01 d0                	add    %edx,%eax
  100bbe:	8b 84 85 50 ff ff ff 	mov    -0xb0(%ebp,%eax,4),%eax
  100bc5:	85 c0                	test   %eax,%eax
  100bc7:	0f 95 c2             	setne  %dl
  100bca:	83 7d f0 04          	cmpl   $0x4,-0x10(%ebp)
  100bce:	0f 9e c0             	setle  %al
  100bd1:	31 d0                	xor    %edx,%eax
  100bd3:	84 c0                	test   %al,%al
  100bd5:	74 24                	je     100bfb <debug_check+0xa6>
  100bd7:	c7 44 24 0c cc a2 10 	movl   $0x10a2cc,0xc(%esp)
  100bde:	00 
  100bdf:	c7 44 24 08 e9 a2 10 	movl   $0x10a2e9,0x8(%esp)
  100be6:	00 
  100be7:	c7 44 24 04 6f 00 00 	movl   $0x6f,0x4(%esp)
  100bee:	00 
  100bef:	c7 04 24 fe a2 10 00 	movl   $0x10a2fe,(%esp)
  100bf6:	e8 3d fd ff ff       	call   100938 <debug_panic>
			if (i >= 2)
  100bfb:	83 7d f0 01          	cmpl   $0x1,-0x10(%ebp)
  100bff:	7e 4a                	jle    100c4b <debug_check+0xf6>
				assert(eips[r][i] == eips[0][i]);
  100c01:	8b 55 f4             	mov    -0xc(%ebp),%edx
  100c04:	89 d0                	mov    %edx,%eax
  100c06:	c1 e0 02             	shl    $0x2,%eax
  100c09:	01 d0                	add    %edx,%eax
  100c0b:	01 c0                	add    %eax,%eax
  100c0d:	8b 55 f0             	mov    -0x10(%ebp),%edx
  100c10:	01 d0                	add    %edx,%eax
  100c12:	8b 94 85 50 ff ff ff 	mov    -0xb0(%ebp,%eax,4),%edx
  100c19:	8b 45 f0             	mov    -0x10(%ebp),%eax
  100c1c:	8b 84 85 50 ff ff ff 	mov    -0xb0(%ebp,%eax,4),%eax
  100c23:	39 c2                	cmp    %eax,%edx
  100c25:	74 24                	je     100c4b <debug_check+0xf6>
  100c27:	c7 44 24 0c 0b a3 10 	movl   $0x10a30b,0xc(%esp)
  100c2e:	00 
  100c2f:	c7 44 24 08 e9 a2 10 	movl   $0x10a2e9,0x8(%esp)
  100c36:	00 
  100c37:	c7 44 24 04 71 00 00 	movl   $0x71,0x4(%esp)
  100c3e:	00 
  100c3f:	c7 04 24 fe a2 10 00 	movl   $0x10a2fe,(%esp)
  100c46:	e8 ed fc ff ff       	call   100938 <debug_panic>
	for (i = 0; i < 4; i++)
		f1(i, eips[i]);

	// ...and make sure they come out correctly.
	for (r = 0; r < 4; r++)
		for (i = 0; i < DEBUG_TRACEFRAMES; i++) {
  100c4b:	83 45 f0 01          	addl   $0x1,-0x10(%ebp)
  100c4f:	83 7d f0 09          	cmpl   $0x9,-0x10(%ebp)
  100c53:	0f 8e 54 ff ff ff    	jle    100bad <debug_check+0x58>
	// produce several related backtraces...
	for (i = 0; i < 4; i++)
		f1(i, eips[i]);

	// ...and make sure they come out correctly.
	for (r = 0; r < 4; r++)
  100c59:	83 45 f4 01          	addl   $0x1,-0xc(%ebp)
  100c5d:	83 7d f4 03          	cmpl   $0x3,-0xc(%ebp)
  100c61:	0f 8e 3a ff ff ff    	jle    100ba1 <debug_check+0x4c>
		for (i = 0; i < DEBUG_TRACEFRAMES; i++) {
			assert((eips[r][i] != 0) == (i < 5));
			if (i >= 2)
				assert(eips[r][i] == eips[0][i]);
		}
	assert(eips[0][0] == eips[1][0]);
  100c67:	8b 95 50 ff ff ff    	mov    -0xb0(%ebp),%edx
  100c6d:	8b 85 78 ff ff ff    	mov    -0x88(%ebp),%eax
  100c73:	39 c2                	cmp    %eax,%edx
  100c75:	74 24                	je     100c9b <debug_check+0x146>
  100c77:	c7 44 24 0c 24 a3 10 	movl   $0x10a324,0xc(%esp)
  100c7e:	00 
  100c7f:	c7 44 24 08 e9 a2 10 	movl   $0x10a2e9,0x8(%esp)
  100c86:	00 
  100c87:	c7 44 24 04 73 00 00 	movl   $0x73,0x4(%esp)
  100c8e:	00 
  100c8f:	c7 04 24 fe a2 10 00 	movl   $0x10a2fe,(%esp)
  100c96:	e8 9d fc ff ff       	call   100938 <debug_panic>
	assert(eips[2][0] == eips[3][0]);
  100c9b:	8b 55 a0             	mov    -0x60(%ebp),%edx
  100c9e:	8b 45 c8             	mov    -0x38(%ebp),%eax
  100ca1:	39 c2                	cmp    %eax,%edx
  100ca3:	74 24                	je     100cc9 <debug_check+0x174>
  100ca5:	c7 44 24 0c 3d a3 10 	movl   $0x10a33d,0xc(%esp)
  100cac:	00 
  100cad:	c7 44 24 08 e9 a2 10 	movl   $0x10a2e9,0x8(%esp)
  100cb4:	00 
  100cb5:	c7 44 24 04 74 00 00 	movl   $0x74,0x4(%esp)
  100cbc:	00 
  100cbd:	c7 04 24 fe a2 10 00 	movl   $0x10a2fe,(%esp)
  100cc4:	e8 6f fc ff ff       	call   100938 <debug_panic>
	assert(eips[1][0] != eips[2][0]);
  100cc9:	8b 95 78 ff ff ff    	mov    -0x88(%ebp),%edx
  100ccf:	8b 45 a0             	mov    -0x60(%ebp),%eax
  100cd2:	39 c2                	cmp    %eax,%edx
  100cd4:	75 24                	jne    100cfa <debug_check+0x1a5>
  100cd6:	c7 44 24 0c 56 a3 10 	movl   $0x10a356,0xc(%esp)
  100cdd:	00 
  100cde:	c7 44 24 08 e9 a2 10 	movl   $0x10a2e9,0x8(%esp)
  100ce5:	00 
  100ce6:	c7 44 24 04 75 00 00 	movl   $0x75,0x4(%esp)
  100ced:	00 
  100cee:	c7 04 24 fe a2 10 00 	movl   $0x10a2fe,(%esp)
  100cf5:	e8 3e fc ff ff       	call   100938 <debug_panic>
	assert(eips[0][1] == eips[2][1]);
  100cfa:	8b 95 54 ff ff ff    	mov    -0xac(%ebp),%edx
  100d00:	8b 45 a4             	mov    -0x5c(%ebp),%eax
  100d03:	39 c2                	cmp    %eax,%edx
  100d05:	74 24                	je     100d2b <debug_check+0x1d6>
  100d07:	c7 44 24 0c 6f a3 10 	movl   $0x10a36f,0xc(%esp)
  100d0e:	00 
  100d0f:	c7 44 24 08 e9 a2 10 	movl   $0x10a2e9,0x8(%esp)
  100d16:	00 
  100d17:	c7 44 24 04 76 00 00 	movl   $0x76,0x4(%esp)
  100d1e:	00 
  100d1f:	c7 04 24 fe a2 10 00 	movl   $0x10a2fe,(%esp)
  100d26:	e8 0d fc ff ff       	call   100938 <debug_panic>
	assert(eips[1][1] == eips[3][1]);
  100d2b:	8b 95 7c ff ff ff    	mov    -0x84(%ebp),%edx
  100d31:	8b 45 cc             	mov    -0x34(%ebp),%eax
  100d34:	39 c2                	cmp    %eax,%edx
  100d36:	74 24                	je     100d5c <debug_check+0x207>
  100d38:	c7 44 24 0c 88 a3 10 	movl   $0x10a388,0xc(%esp)
  100d3f:	00 
  100d40:	c7 44 24 08 e9 a2 10 	movl   $0x10a2e9,0x8(%esp)
  100d47:	00 
  100d48:	c7 44 24 04 77 00 00 	movl   $0x77,0x4(%esp)
  100d4f:	00 
  100d50:	c7 04 24 fe a2 10 00 	movl   $0x10a2fe,(%esp)
  100d57:	e8 dc fb ff ff       	call   100938 <debug_panic>
	assert(eips[0][1] != eips[1][1]);
  100d5c:	8b 95 54 ff ff ff    	mov    -0xac(%ebp),%edx
  100d62:	8b 85 7c ff ff ff    	mov    -0x84(%ebp),%eax
  100d68:	39 c2                	cmp    %eax,%edx
  100d6a:	75 24                	jne    100d90 <debug_check+0x23b>
  100d6c:	c7 44 24 0c a1 a3 10 	movl   $0x10a3a1,0xc(%esp)
  100d73:	00 
  100d74:	c7 44 24 08 e9 a2 10 	movl   $0x10a2e9,0x8(%esp)
  100d7b:	00 
  100d7c:	c7 44 24 04 78 00 00 	movl   $0x78,0x4(%esp)
  100d83:	00 
  100d84:	c7 04 24 fe a2 10 00 	movl   $0x10a2fe,(%esp)
  100d8b:	e8 a8 fb ff ff       	call   100938 <debug_panic>

	cprintf("debug_check() succeeded!\n");
  100d90:	c7 04 24 ba a3 10 00 	movl   $0x10a3ba,(%esp)
  100d97:	e8 34 8b 00 00       	call   1098d0 <cprintf>
}
  100d9c:	c9                   	leave  
  100d9d:	c3                   	ret    
  100d9e:	66 90                	xchg   %ax,%ax

00100da0 <cpu_cur>:
#define cpu_disabled(c)		0

// Find the CPU struct representing the current CPU.
// It always resides at the bottom of the page containing the CPU's stack.
static inline cpu *
cpu_cur() {
  100da0:	55                   	push   %ebp
  100da1:	89 e5                	mov    %esp,%ebp
  100da3:	53                   	push   %ebx
  100da4:	83 ec 24             	sub    $0x24,%esp

static gcc_inline uint32_t
read_esp(void)
{
        uint32_t esp;
        __asm __volatile("movl %%esp,%0" : "=rm" (esp));
  100da7:	89 e3                	mov    %esp,%ebx
  100da9:	89 5d ec             	mov    %ebx,-0x14(%ebp)
        return esp;
  100dac:	8b 45 ec             	mov    -0x14(%ebp),%eax
	cpu *c = (cpu*)ROUNDDOWN(read_esp(), PAGESIZE);
  100daf:	89 45 f4             	mov    %eax,-0xc(%ebp)
  100db2:	8b 45 f4             	mov    -0xc(%ebp),%eax
  100db5:	25 00 f0 ff ff       	and    $0xfffff000,%eax
  100dba:	89 45 f0             	mov    %eax,-0x10(%ebp)
	assert(c->magic == CPU_MAGIC);
  100dbd:	8b 45 f0             	mov    -0x10(%ebp),%eax
  100dc0:	8b 80 b8 00 00 00    	mov    0xb8(%eax),%eax
  100dc6:	3d 32 54 76 98       	cmp    $0x98765432,%eax
  100dcb:	74 24                	je     100df1 <cpu_cur+0x51>
  100dcd:	c7 44 24 0c d4 a3 10 	movl   $0x10a3d4,0xc(%esp)
  100dd4:	00 
  100dd5:	c7 44 24 08 ea a3 10 	movl   $0x10a3ea,0x8(%esp)
  100ddc:	00 
  100ddd:	c7 44 24 04 5c 00 00 	movl   $0x5c,0x4(%esp)
  100de4:	00 
  100de5:	c7 04 24 ff a3 10 00 	movl   $0x10a3ff,(%esp)
  100dec:	e8 47 fb ff ff       	call   100938 <debug_panic>
	return c;
  100df1:	8b 45 f0             	mov    -0x10(%ebp),%eax
}
  100df4:	83 c4 24             	add    $0x24,%esp
  100df7:	5b                   	pop    %ebx
  100df8:	5d                   	pop    %ebp
  100df9:	c3                   	ret    

00100dfa <cpu_onboot>:

// Returns true if we're running on the bootstrap CPU.
static inline int
cpu_onboot() {
  100dfa:	55                   	push   %ebp
  100dfb:	89 e5                	mov    %esp,%ebp
  100dfd:	83 ec 08             	sub    $0x8,%esp
	return cpu_cur() == &cpu_boot;
  100e00:	e8 9b ff ff ff       	call   100da0 <cpu_cur>
  100e05:	3d 00 f0 10 00       	cmp    $0x10f000,%eax
  100e0a:	0f 94 c0             	sete   %al
  100e0d:	0f b6 c0             	movzbl %al,%eax
}
  100e10:	c9                   	leave  
  100e11:	c3                   	ret    

00100e12 <mem_init>:

void mem_check(void);

void
mem_init(void)
{
  100e12:	55                   	push   %ebp
  100e13:	89 e5                	mov    %esp,%ebp
  100e15:	83 ec 38             	sub    $0x38,%esp
	if (!cpu_onboot())	// only do once, on the boot CPU
  100e18:	e8 dd ff ff ff       	call   100dfa <cpu_onboot>
  100e1d:	85 c0                	test   %eax,%eax
  100e1f:	0f 84 a3 01 00 00    	je     100fc8 <mem_init+0x1b6>
	// is available in the system (in bytes),
	// by reading the PC's BIOS-managed nonvolatile RAM (NVRAM).
	// The NVRAM tells us how many kilobytes there are.
	// Since the count is 16 bits, this gives us up to 64MB of RAM;
	// additional RAM beyond that would have to be detected another way.
	size_t basemem = ROUNDDOWN(nvram_read16(NVRAM_BASELO)*1024, PAGESIZE);
  100e25:	c7 04 24 15 00 00 00 	movl   $0x15,(%esp)
  100e2c:	e8 8d 7d 00 00       	call   108bbe <nvram_read16>
  100e31:	c1 e0 0a             	shl    $0xa,%eax
  100e34:	89 45 ec             	mov    %eax,-0x14(%ebp)
  100e37:	8b 45 ec             	mov    -0x14(%ebp),%eax
  100e3a:	25 00 f0 ff ff       	and    $0xfffff000,%eax
  100e3f:	89 45 e8             	mov    %eax,-0x18(%ebp)
	size_t extmem = ROUNDDOWN(nvram_read16(NVRAM_EXTLO)*1024, PAGESIZE);
  100e42:	c7 04 24 17 00 00 00 	movl   $0x17,(%esp)
  100e49:	e8 70 7d 00 00       	call   108bbe <nvram_read16>
  100e4e:	c1 e0 0a             	shl    $0xa,%eax
  100e51:	89 45 e4             	mov    %eax,-0x1c(%ebp)
  100e54:	8b 45 e4             	mov    -0x1c(%ebp),%eax
  100e57:	25 00 f0 ff ff       	and    $0xfffff000,%eax
  100e5c:	89 45 e0             	mov    %eax,-0x20(%ebp)

	warn("Assuming we have 1GB of memory!");
  100e5f:	c7 44 24 08 0c a4 10 	movl   $0x10a40c,0x8(%esp)
  100e66:	00 
  100e67:	c7 44 24 04 30 00 00 	movl   $0x30,0x4(%esp)
  100e6e:	00 
  100e6f:	c7 04 24 2c a4 10 00 	movl   $0x10a42c,(%esp)
  100e76:	e8 83 fb ff ff       	call   1009fe <debug_warn>
	extmem = 1024*1024*1024 - MEM_EXT;	// assume 1GB total memory
  100e7b:	c7 45 e0 00 00 f0 3f 	movl   $0x3ff00000,-0x20(%ebp)

	// The maximum physical address is the top of extended memory.
	mem_max = MEM_EXT + extmem;
  100e82:	8b 45 e0             	mov    -0x20(%ebp),%eax
  100e85:	05 00 00 10 00       	add    $0x100000,%eax
  100e8a:	a3 48 8f 38 00       	mov    %eax,0x388f48

	// Compute the total number of physical pages (including I/O holes)
	mem_npage = mem_max / PAGESIZE;
  100e8f:	a1 48 8f 38 00       	mov    0x388f48,%eax
  100e94:	c1 e8 0c             	shr    $0xc,%eax
  100e97:	a3 44 8f 38 00       	mov    %eax,0x388f44

	cprintf("Physical memory: %dK available, ", (int)(mem_max/1024));
  100e9c:	a1 48 8f 38 00       	mov    0x388f48,%eax
  100ea1:	c1 e8 0a             	shr    $0xa,%eax
  100ea4:	89 44 24 04          	mov    %eax,0x4(%esp)
  100ea8:	c7 04 24 38 a4 10 00 	movl   $0x10a438,(%esp)
  100eaf:	e8 1c 8a 00 00       	call   1098d0 <cprintf>
	cprintf("base = %dK, extended = %dK\n",
		(int)(basemem/1024), (int)(extmem/1024));
  100eb4:	8b 45 e0             	mov    -0x20(%ebp),%eax
  100eb7:	c1 e8 0a             	shr    $0xa,%eax

	// Compute the total number of physical pages (including I/O holes)
	mem_npage = mem_max / PAGESIZE;

	cprintf("Physical memory: %dK available, ", (int)(mem_max/1024));
	cprintf("base = %dK, extended = %dK\n",
  100eba:	89 c2                	mov    %eax,%edx
		(int)(basemem/1024), (int)(extmem/1024));
  100ebc:	8b 45 e8             	mov    -0x18(%ebp),%eax
  100ebf:	c1 e8 0a             	shr    $0xa,%eax

	// Compute the total number of physical pages (including I/O holes)
	mem_npage = mem_max / PAGESIZE;

	cprintf("Physical memory: %dK available, ", (int)(mem_max/1024));
	cprintf("base = %dK, extended = %dK\n",
  100ec2:	89 54 24 08          	mov    %edx,0x8(%esp)
  100ec6:	89 44 24 04          	mov    %eax,0x4(%esp)
  100eca:	c7 04 24 59 a4 10 00 	movl   $0x10a459,(%esp)
  100ed1:	e8 fa 89 00 00       	call   1098d0 <cprintf>
		(int)(basemem/1024), (int)(extmem/1024));
	spinlock_init(mem_spinlock);
  100ed6:	a1 4c 8f 38 00       	mov    0x388f4c,%eax
  100edb:	c7 44 24 08 3c 00 00 	movl   $0x3c,0x8(%esp)
  100ee2:	00 
  100ee3:	c7 44 24 04 2c a4 10 	movl   $0x10a42c,0x4(%esp)
  100eea:	00 
  100eeb:	89 04 24             	mov    %eax,(%esp)
  100eee:	e8 d4 1a 00 00       	call   1029c7 <spinlock_init_>
	//     Some of it is in use, some is free.
	//     Which pages hold the kernel and the pageinfo array?
	//     Hint: the linker places the kernel (see start and end above),
	//     but YOU decide where to place the pageinfo array.
	// Change the code to reflect this.
	pageinfo **freetail = &mem_freelist;
  100ef3:	c7 45 f4 40 8f 38 00 	movl   $0x388f40,-0xc(%ebp)
	int i;
	mem_pageinfo = tmp_pageinfo;
  100efa:	c7 05 50 8f 38 00 40 	movl   $0x188f40,0x388f50
  100f01:	8f 18 00 
	memset(tmp_pageinfo, 0, (sizeof(pageinfo)*1024*1024*1024)/PAGESIZE);
  100f04:	c7 44 24 08 00 00 00 	movl   $0x0,0x8(%esp)
  100f0b:	00 
  100f0c:	c7 44 24 04 00 00 00 	movl   $0x0,0x4(%esp)
  100f13:	00 
  100f14:	c7 04 24 40 8f 18 00 	movl   $0x188f40,(%esp)
  100f1b:	e8 21 8d 00 00       	call   109c41 <memset>
	for (i = 0; i < mem_npage; i++) {
  100f20:	c7 45 f0 00 00 00 00 	movl   $0x0,-0x10(%ebp)
  100f27:	eb 7f                	jmp    100fa8 <mem_init+0x196>
		// A free page has no references to it.
		mem_pageinfo[i].refcount = 0;
  100f29:	a1 50 8f 38 00       	mov    0x388f50,%eax
  100f2e:	8b 55 f0             	mov    -0x10(%ebp),%edx
  100f31:	c1 e2 03             	shl    $0x3,%edx
  100f34:	01 d0                	add    %edx,%eax
  100f36:	c7 40 04 00 00 00 00 	movl   $0x0,0x4(%eax)
		if(i == 0 || i == 1)
  100f3d:	83 7d f0 00          	cmpl   $0x0,-0x10(%ebp)
  100f41:	74 5a                	je     100f9d <mem_init+0x18b>
  100f43:	83 7d f0 01          	cmpl   $0x1,-0x10(%ebp)
  100f47:	74 54                	je     100f9d <mem_init+0x18b>
			continue;
		if(i >= MEM_IO/PAGESIZE && i < MEM_EXT/PAGESIZE)
  100f49:	81 7d f0 9f 00 00 00 	cmpl   $0x9f,-0x10(%ebp)
  100f50:	7e 09                	jle    100f5b <mem_init+0x149>
  100f52:	81 7d f0 ff 00 00 00 	cmpl   $0xff,-0x10(%ebp)
  100f59:	7e 45                	jle    100fa0 <mem_init+0x18e>
			continue;
		// Add the page to the end of the free list.s
		if(i >= ((uint32_t)start)/PAGESIZE && i <= ((uint32_t)end)/PAGESIZE)
  100f5b:	8b 45 f0             	mov    -0x10(%ebp),%eax
  100f5e:	ba 0c 00 10 00       	mov    $0x10000c,%edx
  100f63:	c1 ea 0c             	shr    $0xc,%edx
  100f66:	39 d0                	cmp    %edx,%eax
  100f68:	72 0f                	jb     100f79 <mem_init+0x167>
  100f6a:	8b 45 f0             	mov    -0x10(%ebp),%eax
  100f6d:	ba 08 c0 38 00       	mov    $0x38c008,%edx
  100f72:	c1 ea 0c             	shr    $0xc,%edx
  100f75:	39 d0                	cmp    %edx,%eax
  100f77:	76 2a                	jbe    100fa3 <mem_init+0x191>
			continue;
		*freetail = &mem_pageinfo[i];
  100f79:	a1 50 8f 38 00       	mov    0x388f50,%eax
  100f7e:	8b 55 f0             	mov    -0x10(%ebp),%edx
  100f81:	c1 e2 03             	shl    $0x3,%edx
  100f84:	01 c2                	add    %eax,%edx
  100f86:	8b 45 f4             	mov    -0xc(%ebp),%eax
  100f89:	89 10                	mov    %edx,(%eax)
		freetail = &mem_pageinfo[i].free_next;
  100f8b:	a1 50 8f 38 00       	mov    0x388f50,%eax
  100f90:	8b 55 f0             	mov    -0x10(%ebp),%edx
  100f93:	c1 e2 03             	shl    $0x3,%edx
  100f96:	01 d0                	add    %edx,%eax
  100f98:	89 45 f4             	mov    %eax,-0xc(%ebp)
  100f9b:	eb 07                	jmp    100fa4 <mem_init+0x192>
	memset(tmp_pageinfo, 0, (sizeof(pageinfo)*1024*1024*1024)/PAGESIZE);
	for (i = 0; i < mem_npage; i++) {
		// A free page has no references to it.
		mem_pageinfo[i].refcount = 0;
		if(i == 0 || i == 1)
			continue;
  100f9d:	90                   	nop
  100f9e:	eb 04                	jmp    100fa4 <mem_init+0x192>
		if(i >= MEM_IO/PAGESIZE && i < MEM_EXT/PAGESIZE)
			continue;
  100fa0:	90                   	nop
  100fa1:	eb 01                	jmp    100fa4 <mem_init+0x192>
		// Add the page to the end of the free list.s
		if(i >= ((uint32_t)start)/PAGESIZE && i <= ((uint32_t)end)/PAGESIZE)
			continue;
  100fa3:	90                   	nop
	// Change the code to reflect this.
	pageinfo **freetail = &mem_freelist;
	int i;
	mem_pageinfo = tmp_pageinfo;
	memset(tmp_pageinfo, 0, (sizeof(pageinfo)*1024*1024*1024)/PAGESIZE);
	for (i = 0; i < mem_npage; i++) {
  100fa4:	83 45 f0 01          	addl   $0x1,-0x10(%ebp)
  100fa8:	8b 55 f0             	mov    -0x10(%ebp),%edx
  100fab:	a1 44 8f 38 00       	mov    0x388f44,%eax
  100fb0:	39 c2                	cmp    %eax,%edx
  100fb2:	0f 82 71 ff ff ff    	jb     100f29 <mem_init+0x117>
		if(i >= ((uint32_t)start)/PAGESIZE && i <= ((uint32_t)end)/PAGESIZE)
			continue;
		*freetail = &mem_pageinfo[i];
		freetail = &mem_pageinfo[i].free_next;
	}
	*freetail = NULL;	// null-terminate the freelist
  100fb8:	8b 45 f4             	mov    -0xc(%ebp),%eax
  100fbb:	c7 00 00 00 00 00    	movl   $0x0,(%eax)

	// ...and remove this when you're ready.
	//panic("mem_init() not implemented");

	// Check to make sure the page allocator seems to work correctly.
	mem_check();
  100fc1:	e8 e1 00 00 00       	call   1010a7 <mem_check>
  100fc6:	eb 01                	jmp    100fc9 <mem_init+0x1b7>

void
mem_init(void)
{
	if (!cpu_onboot())	// only do once, on the boot CPU
		return;
  100fc8:	90                   	nop
	// ...and remove this when you're ready.
	//panic("mem_init() not implemented");

	// Check to make sure the page allocator seems to work correctly.
	mem_check();
}
  100fc9:	c9                   	leave  
  100fca:	c3                   	ret    

00100fcb <mem_alloc>:
//
// Hint: pi->refs should not be incremented 
// Hint: be sure to use proper mutual exclusion for multiprocessor operation.
pageinfo *
mem_alloc(void)
{
  100fcb:	55                   	push   %ebp
  100fcc:	89 e5                	mov    %esp,%ebp
  100fce:	83 ec 28             	sub    $0x28,%esp
	// Fill this function in.
	//panic("mem_alloc not implemented.");
	pageinfo *return_page;
	if(!mem_freelist)
  100fd1:	a1 40 8f 38 00       	mov    0x388f40,%eax
  100fd6:	85 c0                	test   %eax,%eax
  100fd8:	75 07                	jne    100fe1 <mem_alloc+0x16>
		return NULL;
  100fda:	b8 00 00 00 00       	mov    $0x0,%eax
  100fdf:	eb 3a                	jmp    10101b <mem_alloc+0x50>
	spinlock_acquire(mem_spinlock);
  100fe1:	a1 4c 8f 38 00       	mov    0x388f4c,%eax
  100fe6:	89 04 24             	mov    %eax,(%esp)
  100fe9:	e8 03 1a 00 00       	call   1029f1 <spinlock_acquire>
	return_page = mem_freelist;
  100fee:	a1 40 8f 38 00       	mov    0x388f40,%eax
  100ff3:	89 45 f4             	mov    %eax,-0xc(%ebp)
	mem_freelist = mem_freelist->free_next;
  100ff6:	a1 40 8f 38 00       	mov    0x388f40,%eax
  100ffb:	8b 00                	mov    (%eax),%eax
  100ffd:	a3 40 8f 38 00       	mov    %eax,0x388f40
	spinlock_release(mem_spinlock);
  101002:	a1 4c 8f 38 00       	mov    0x388f4c,%eax
  101007:	89 04 24             	mov    %eax,(%esp)
  10100a:	e8 57 1a 00 00       	call   102a66 <spinlock_release>
	return_page->free_next = NULL;
  10100f:	8b 45 f4             	mov    -0xc(%ebp),%eax
  101012:	c7 00 00 00 00 00    	movl   $0x0,(%eax)
	return return_page;
  101018:	8b 45 f4             	mov    -0xc(%ebp),%eax
}
  10101b:	c9                   	leave  
  10101c:	c3                   	ret    

0010101d <mem_free>:
// Return a page to the free list, given its pageinfo pointer.
// (This function should only be called when pp->pp_ref reaches 0.)
//
void
mem_free(pageinfo *pi)
{
  10101d:	55                   	push   %ebp
  10101e:	89 e5                	mov    %esp,%ebp
  101020:	83 ec 18             	sub    $0x18,%esp
	// Fill this function in.
	//panic("mem_free not implemented.");
	assert(pi->refcount == 0);
  101023:	8b 45 08             	mov    0x8(%ebp),%eax
  101026:	8b 40 04             	mov    0x4(%eax),%eax
  101029:	85 c0                	test   %eax,%eax
  10102b:	74 24                	je     101051 <mem_free+0x34>
  10102d:	c7 44 24 0c 75 a4 10 	movl   $0x10a475,0xc(%esp)
  101034:	00 
  101035:	c7 44 24 08 ea a3 10 	movl   $0x10a3ea,0x8(%esp)
  10103c:	00 
  10103d:	c7 44 24 04 91 00 00 	movl   $0x91,0x4(%esp)
  101044:	00 
  101045:	c7 04 24 2c a4 10 00 	movl   $0x10a42c,(%esp)
  10104c:	e8 e7 f8 ff ff       	call   100938 <debug_panic>
	if(((int)pi <= 0x123608) && ((int)pi >= 0x1224e0))
  101051:	8b 45 08             	mov    0x8(%ebp),%eax
  101054:	3d 08 36 12 00       	cmp    $0x123608,%eax
  101059:	7f 1d                	jg     101078 <mem_free+0x5b>
  10105b:	8b 45 08             	mov    0x8(%ebp),%eax
  10105e:	3d df 24 12 00       	cmp    $0x1224df,%eax
  101063:	7e 13                	jle    101078 <mem_free+0x5b>
		cprintf("=========== in mem_free 0x%x free.============\n", pi);
  101065:	8b 45 08             	mov    0x8(%ebp),%eax
  101068:	89 44 24 04          	mov    %eax,0x4(%esp)
  10106c:	c7 04 24 88 a4 10 00 	movl   $0x10a488,(%esp)
  101073:	e8 58 88 00 00       	call   1098d0 <cprintf>
	spinlock_acquire(mem_spinlock);
  101078:	a1 4c 8f 38 00       	mov    0x388f4c,%eax
  10107d:	89 04 24             	mov    %eax,(%esp)
  101080:	e8 6c 19 00 00       	call   1029f1 <spinlock_acquire>
	pi->free_next = mem_freelist;
  101085:	8b 15 40 8f 38 00    	mov    0x388f40,%edx
  10108b:	8b 45 08             	mov    0x8(%ebp),%eax
  10108e:	89 10                	mov    %edx,(%eax)
	mem_freelist = pi;
  101090:	8b 45 08             	mov    0x8(%ebp),%eax
  101093:	a3 40 8f 38 00       	mov    %eax,0x388f40
	spinlock_release(mem_spinlock);
  101098:	a1 4c 8f 38 00       	mov    0x388f4c,%eax
  10109d:	89 04 24             	mov    %eax,(%esp)
  1010a0:	e8 c1 19 00 00       	call   102a66 <spinlock_release>
}
  1010a5:	c9                   	leave  
  1010a6:	c3                   	ret    

001010a7 <mem_check>:
// Check the physical page allocator (mem_alloc(), mem_free())
// for correct operation after initialization via mem_init().
//
void
mem_check()
{
  1010a7:	55                   	push   %ebp
  1010a8:	89 e5                	mov    %esp,%ebp
  1010aa:	83 ec 38             	sub    $0x38,%esp
	int i;

        // if there's a page that shouldn't be on
        // the free list, try to make sure it
        // eventually causes trouble.
	int freepages = 0;
  1010ad:	c7 45 f0 00 00 00 00 	movl   $0x0,-0x10(%ebp)
	for (pp = mem_freelist; pp != 0; pp = pp->free_next) {
  1010b4:	a1 40 8f 38 00       	mov    0x388f40,%eax
  1010b9:	89 45 f4             	mov    %eax,-0xc(%ebp)
  1010bc:	eb 38                	jmp    1010f6 <mem_check+0x4f>
		memset(mem_pi2ptr(pp), 0x97, 128);
  1010be:	8b 55 f4             	mov    -0xc(%ebp),%edx
  1010c1:	a1 50 8f 38 00       	mov    0x388f50,%eax
  1010c6:	89 d1                	mov    %edx,%ecx
  1010c8:	29 c1                	sub    %eax,%ecx
  1010ca:	89 c8                	mov    %ecx,%eax
  1010cc:	c1 f8 03             	sar    $0x3,%eax
  1010cf:	c1 e0 0c             	shl    $0xc,%eax
  1010d2:	c7 44 24 08 80 00 00 	movl   $0x80,0x8(%esp)
  1010d9:	00 
  1010da:	c7 44 24 04 97 00 00 	movl   $0x97,0x4(%esp)
  1010e1:	00 
  1010e2:	89 04 24             	mov    %eax,(%esp)
  1010e5:	e8 57 8b 00 00       	call   109c41 <memset>
		freepages++;
  1010ea:	83 45 f0 01          	addl   $0x1,-0x10(%ebp)

        // if there's a page that shouldn't be on
        // the free list, try to make sure it
        // eventually causes trouble.
	int freepages = 0;
	for (pp = mem_freelist; pp != 0; pp = pp->free_next) {
  1010ee:	8b 45 f4             	mov    -0xc(%ebp),%eax
  1010f1:	8b 00                	mov    (%eax),%eax
  1010f3:	89 45 f4             	mov    %eax,-0xc(%ebp)
  1010f6:	83 7d f4 00          	cmpl   $0x0,-0xc(%ebp)
  1010fa:	75 c2                	jne    1010be <mem_check+0x17>
		memset(mem_pi2ptr(pp), 0x97, 128);
		freepages++;
	}
	cprintf("mem_check: %d free pages\n", freepages);
  1010fc:	8b 45 f0             	mov    -0x10(%ebp),%eax
  1010ff:	89 44 24 04          	mov    %eax,0x4(%esp)
  101103:	c7 04 24 b8 a4 10 00 	movl   $0x10a4b8,(%esp)
  10110a:	e8 c1 87 00 00       	call   1098d0 <cprintf>
	assert(freepages < mem_npage);	// can't have more free than total!
  10110f:	8b 55 f0             	mov    -0x10(%ebp),%edx
  101112:	a1 44 8f 38 00       	mov    0x388f44,%eax
  101117:	39 c2                	cmp    %eax,%edx
  101119:	72 24                	jb     10113f <mem_check+0x98>
  10111b:	c7 44 24 0c d2 a4 10 	movl   $0x10a4d2,0xc(%esp)
  101122:	00 
  101123:	c7 44 24 08 ea a3 10 	movl   $0x10a3ea,0x8(%esp)
  10112a:	00 
  10112b:	c7 44 24 04 ae 00 00 	movl   $0xae,0x4(%esp)
  101132:	00 
  101133:	c7 04 24 2c a4 10 00 	movl   $0x10a42c,(%esp)
  10113a:	e8 f9 f7 ff ff       	call   100938 <debug_panic>
	assert(freepages > 16000);	// make sure it's in the right ballpark
  10113f:	81 7d f0 80 3e 00 00 	cmpl   $0x3e80,-0x10(%ebp)
  101146:	7f 24                	jg     10116c <mem_check+0xc5>
  101148:	c7 44 24 0c e8 a4 10 	movl   $0x10a4e8,0xc(%esp)
  10114f:	00 
  101150:	c7 44 24 08 ea a3 10 	movl   $0x10a3ea,0x8(%esp)
  101157:	00 
  101158:	c7 44 24 04 af 00 00 	movl   $0xaf,0x4(%esp)
  10115f:	00 
  101160:	c7 04 24 2c a4 10 00 	movl   $0x10a42c,(%esp)
  101167:	e8 cc f7 ff ff       	call   100938 <debug_panic>

	// should be able to allocate three pages
	pp0 = pp1 = pp2 = 0;
  10116c:	c7 45 ec 00 00 00 00 	movl   $0x0,-0x14(%ebp)
  101173:	8b 45 ec             	mov    -0x14(%ebp),%eax
  101176:	89 45 e8             	mov    %eax,-0x18(%ebp)
  101179:	8b 45 e8             	mov    -0x18(%ebp),%eax
  10117c:	89 45 e4             	mov    %eax,-0x1c(%ebp)
	pp0 = mem_alloc(); assert(pp0 != 0);
  10117f:	e8 47 fe ff ff       	call   100fcb <mem_alloc>
  101184:	89 45 e4             	mov    %eax,-0x1c(%ebp)
  101187:	83 7d e4 00          	cmpl   $0x0,-0x1c(%ebp)
  10118b:	75 24                	jne    1011b1 <mem_check+0x10a>
  10118d:	c7 44 24 0c fa a4 10 	movl   $0x10a4fa,0xc(%esp)
  101194:	00 
  101195:	c7 44 24 08 ea a3 10 	movl   $0x10a3ea,0x8(%esp)
  10119c:	00 
  10119d:	c7 44 24 04 b3 00 00 	movl   $0xb3,0x4(%esp)
  1011a4:	00 
  1011a5:	c7 04 24 2c a4 10 00 	movl   $0x10a42c,(%esp)
  1011ac:	e8 87 f7 ff ff       	call   100938 <debug_panic>
	pp1 = mem_alloc(); assert(pp1 != 0);
  1011b1:	e8 15 fe ff ff       	call   100fcb <mem_alloc>
  1011b6:	89 45 e8             	mov    %eax,-0x18(%ebp)
  1011b9:	83 7d e8 00          	cmpl   $0x0,-0x18(%ebp)
  1011bd:	75 24                	jne    1011e3 <mem_check+0x13c>
  1011bf:	c7 44 24 0c 03 a5 10 	movl   $0x10a503,0xc(%esp)
  1011c6:	00 
  1011c7:	c7 44 24 08 ea a3 10 	movl   $0x10a3ea,0x8(%esp)
  1011ce:	00 
  1011cf:	c7 44 24 04 b4 00 00 	movl   $0xb4,0x4(%esp)
  1011d6:	00 
  1011d7:	c7 04 24 2c a4 10 00 	movl   $0x10a42c,(%esp)
  1011de:	e8 55 f7 ff ff       	call   100938 <debug_panic>
	pp2 = mem_alloc(); assert(pp2 != 0);
  1011e3:	e8 e3 fd ff ff       	call   100fcb <mem_alloc>
  1011e8:	89 45 ec             	mov    %eax,-0x14(%ebp)
  1011eb:	83 7d ec 00          	cmpl   $0x0,-0x14(%ebp)
  1011ef:	75 24                	jne    101215 <mem_check+0x16e>
  1011f1:	c7 44 24 0c 0c a5 10 	movl   $0x10a50c,0xc(%esp)
  1011f8:	00 
  1011f9:	c7 44 24 08 ea a3 10 	movl   $0x10a3ea,0x8(%esp)
  101200:	00 
  101201:	c7 44 24 04 b5 00 00 	movl   $0xb5,0x4(%esp)
  101208:	00 
  101209:	c7 04 24 2c a4 10 00 	movl   $0x10a42c,(%esp)
  101210:	e8 23 f7 ff ff       	call   100938 <debug_panic>

	assert(pp0);
  101215:	83 7d e4 00          	cmpl   $0x0,-0x1c(%ebp)
  101219:	75 24                	jne    10123f <mem_check+0x198>
  10121b:	c7 44 24 0c 15 a5 10 	movl   $0x10a515,0xc(%esp)
  101222:	00 
  101223:	c7 44 24 08 ea a3 10 	movl   $0x10a3ea,0x8(%esp)
  10122a:	00 
  10122b:	c7 44 24 04 b7 00 00 	movl   $0xb7,0x4(%esp)
  101232:	00 
  101233:	c7 04 24 2c a4 10 00 	movl   $0x10a42c,(%esp)
  10123a:	e8 f9 f6 ff ff       	call   100938 <debug_panic>
	assert(pp1 && pp1 != pp0);
  10123f:	83 7d e8 00          	cmpl   $0x0,-0x18(%ebp)
  101243:	74 08                	je     10124d <mem_check+0x1a6>
  101245:	8b 45 e8             	mov    -0x18(%ebp),%eax
  101248:	3b 45 e4             	cmp    -0x1c(%ebp),%eax
  10124b:	75 24                	jne    101271 <mem_check+0x1ca>
  10124d:	c7 44 24 0c 19 a5 10 	movl   $0x10a519,0xc(%esp)
  101254:	00 
  101255:	c7 44 24 08 ea a3 10 	movl   $0x10a3ea,0x8(%esp)
  10125c:	00 
  10125d:	c7 44 24 04 b8 00 00 	movl   $0xb8,0x4(%esp)
  101264:	00 
  101265:	c7 04 24 2c a4 10 00 	movl   $0x10a42c,(%esp)
  10126c:	e8 c7 f6 ff ff       	call   100938 <debug_panic>
	assert(pp2 && pp2 != pp1 && pp2 != pp0);
  101271:	83 7d ec 00          	cmpl   $0x0,-0x14(%ebp)
  101275:	74 10                	je     101287 <mem_check+0x1e0>
  101277:	8b 45 ec             	mov    -0x14(%ebp),%eax
  10127a:	3b 45 e8             	cmp    -0x18(%ebp),%eax
  10127d:	74 08                	je     101287 <mem_check+0x1e0>
  10127f:	8b 45 ec             	mov    -0x14(%ebp),%eax
  101282:	3b 45 e4             	cmp    -0x1c(%ebp),%eax
  101285:	75 24                	jne    1012ab <mem_check+0x204>
  101287:	c7 44 24 0c 2c a5 10 	movl   $0x10a52c,0xc(%esp)
  10128e:	00 
  10128f:	c7 44 24 08 ea a3 10 	movl   $0x10a3ea,0x8(%esp)
  101296:	00 
  101297:	c7 44 24 04 b9 00 00 	movl   $0xb9,0x4(%esp)
  10129e:	00 
  10129f:	c7 04 24 2c a4 10 00 	movl   $0x10a42c,(%esp)
  1012a6:	e8 8d f6 ff ff       	call   100938 <debug_panic>
        assert(mem_pi2phys(pp0) < mem_npage*PAGESIZE);
  1012ab:	8b 55 e4             	mov    -0x1c(%ebp),%edx
  1012ae:	a1 50 8f 38 00       	mov    0x388f50,%eax
  1012b3:	89 d1                	mov    %edx,%ecx
  1012b5:	29 c1                	sub    %eax,%ecx
  1012b7:	89 c8                	mov    %ecx,%eax
  1012b9:	c1 f8 03             	sar    $0x3,%eax
  1012bc:	c1 e0 0c             	shl    $0xc,%eax
  1012bf:	8b 15 44 8f 38 00    	mov    0x388f44,%edx
  1012c5:	c1 e2 0c             	shl    $0xc,%edx
  1012c8:	39 d0                	cmp    %edx,%eax
  1012ca:	72 24                	jb     1012f0 <mem_check+0x249>
  1012cc:	c7 44 24 0c 4c a5 10 	movl   $0x10a54c,0xc(%esp)
  1012d3:	00 
  1012d4:	c7 44 24 08 ea a3 10 	movl   $0x10a3ea,0x8(%esp)
  1012db:	00 
  1012dc:	c7 44 24 04 ba 00 00 	movl   $0xba,0x4(%esp)
  1012e3:	00 
  1012e4:	c7 04 24 2c a4 10 00 	movl   $0x10a42c,(%esp)
  1012eb:	e8 48 f6 ff ff       	call   100938 <debug_panic>
        assert(mem_pi2phys(pp1) < mem_npage*PAGESIZE);
  1012f0:	8b 55 e8             	mov    -0x18(%ebp),%edx
  1012f3:	a1 50 8f 38 00       	mov    0x388f50,%eax
  1012f8:	89 d1                	mov    %edx,%ecx
  1012fa:	29 c1                	sub    %eax,%ecx
  1012fc:	89 c8                	mov    %ecx,%eax
  1012fe:	c1 f8 03             	sar    $0x3,%eax
  101301:	c1 e0 0c             	shl    $0xc,%eax
  101304:	8b 15 44 8f 38 00    	mov    0x388f44,%edx
  10130a:	c1 e2 0c             	shl    $0xc,%edx
  10130d:	39 d0                	cmp    %edx,%eax
  10130f:	72 24                	jb     101335 <mem_check+0x28e>
  101311:	c7 44 24 0c 74 a5 10 	movl   $0x10a574,0xc(%esp)
  101318:	00 
  101319:	c7 44 24 08 ea a3 10 	movl   $0x10a3ea,0x8(%esp)
  101320:	00 
  101321:	c7 44 24 04 bb 00 00 	movl   $0xbb,0x4(%esp)
  101328:	00 
  101329:	c7 04 24 2c a4 10 00 	movl   $0x10a42c,(%esp)
  101330:	e8 03 f6 ff ff       	call   100938 <debug_panic>
        assert(mem_pi2phys(pp2) < mem_npage*PAGESIZE);
  101335:	8b 55 ec             	mov    -0x14(%ebp),%edx
  101338:	a1 50 8f 38 00       	mov    0x388f50,%eax
  10133d:	89 d1                	mov    %edx,%ecx
  10133f:	29 c1                	sub    %eax,%ecx
  101341:	89 c8                	mov    %ecx,%eax
  101343:	c1 f8 03             	sar    $0x3,%eax
  101346:	c1 e0 0c             	shl    $0xc,%eax
  101349:	8b 15 44 8f 38 00    	mov    0x388f44,%edx
  10134f:	c1 e2 0c             	shl    $0xc,%edx
  101352:	39 d0                	cmp    %edx,%eax
  101354:	72 24                	jb     10137a <mem_check+0x2d3>
  101356:	c7 44 24 0c 9c a5 10 	movl   $0x10a59c,0xc(%esp)
  10135d:	00 
  10135e:	c7 44 24 08 ea a3 10 	movl   $0x10a3ea,0x8(%esp)
  101365:	00 
  101366:	c7 44 24 04 bc 00 00 	movl   $0xbc,0x4(%esp)
  10136d:	00 
  10136e:	c7 04 24 2c a4 10 00 	movl   $0x10a42c,(%esp)
  101375:	e8 be f5 ff ff       	call   100938 <debug_panic>

	// temporarily steal the rest of the free pages
	fl = mem_freelist;
  10137a:	a1 40 8f 38 00       	mov    0x388f40,%eax
  10137f:	89 45 e0             	mov    %eax,-0x20(%ebp)
	mem_freelist = 0;
  101382:	c7 05 40 8f 38 00 00 	movl   $0x0,0x388f40
  101389:	00 00 00 

	// should be no free memory
	assert(mem_alloc() == 0);
  10138c:	e8 3a fc ff ff       	call   100fcb <mem_alloc>
  101391:	85 c0                	test   %eax,%eax
  101393:	74 24                	je     1013b9 <mem_check+0x312>
  101395:	c7 44 24 0c c2 a5 10 	movl   $0x10a5c2,0xc(%esp)
  10139c:	00 
  10139d:	c7 44 24 08 ea a3 10 	movl   $0x10a3ea,0x8(%esp)
  1013a4:	00 
  1013a5:	c7 44 24 04 c3 00 00 	movl   $0xc3,0x4(%esp)
  1013ac:	00 
  1013ad:	c7 04 24 2c a4 10 00 	movl   $0x10a42c,(%esp)
  1013b4:	e8 7f f5 ff ff       	call   100938 <debug_panic>

        // free and re-allocate?
        mem_free(pp0);
  1013b9:	8b 45 e4             	mov    -0x1c(%ebp),%eax
  1013bc:	89 04 24             	mov    %eax,(%esp)
  1013bf:	e8 59 fc ff ff       	call   10101d <mem_free>
        mem_free(pp1);
  1013c4:	8b 45 e8             	mov    -0x18(%ebp),%eax
  1013c7:	89 04 24             	mov    %eax,(%esp)
  1013ca:	e8 4e fc ff ff       	call   10101d <mem_free>
        mem_free(pp2);
  1013cf:	8b 45 ec             	mov    -0x14(%ebp),%eax
  1013d2:	89 04 24             	mov    %eax,(%esp)
  1013d5:	e8 43 fc ff ff       	call   10101d <mem_free>
	pp0 = pp1 = pp2 = 0;
  1013da:	c7 45 ec 00 00 00 00 	movl   $0x0,-0x14(%ebp)
  1013e1:	8b 45 ec             	mov    -0x14(%ebp),%eax
  1013e4:	89 45 e8             	mov    %eax,-0x18(%ebp)
  1013e7:	8b 45 e8             	mov    -0x18(%ebp),%eax
  1013ea:	89 45 e4             	mov    %eax,-0x1c(%ebp)
	pp0 = mem_alloc(); assert(pp0 != 0);
  1013ed:	e8 d9 fb ff ff       	call   100fcb <mem_alloc>
  1013f2:	89 45 e4             	mov    %eax,-0x1c(%ebp)
  1013f5:	83 7d e4 00          	cmpl   $0x0,-0x1c(%ebp)
  1013f9:	75 24                	jne    10141f <mem_check+0x378>
  1013fb:	c7 44 24 0c fa a4 10 	movl   $0x10a4fa,0xc(%esp)
  101402:	00 
  101403:	c7 44 24 08 ea a3 10 	movl   $0x10a3ea,0x8(%esp)
  10140a:	00 
  10140b:	c7 44 24 04 ca 00 00 	movl   $0xca,0x4(%esp)
  101412:	00 
  101413:	c7 04 24 2c a4 10 00 	movl   $0x10a42c,(%esp)
  10141a:	e8 19 f5 ff ff       	call   100938 <debug_panic>
	pp1 = mem_alloc(); assert(pp1 != 0);
  10141f:	e8 a7 fb ff ff       	call   100fcb <mem_alloc>
  101424:	89 45 e8             	mov    %eax,-0x18(%ebp)
  101427:	83 7d e8 00          	cmpl   $0x0,-0x18(%ebp)
  10142b:	75 24                	jne    101451 <mem_check+0x3aa>
  10142d:	c7 44 24 0c 03 a5 10 	movl   $0x10a503,0xc(%esp)
  101434:	00 
  101435:	c7 44 24 08 ea a3 10 	movl   $0x10a3ea,0x8(%esp)
  10143c:	00 
  10143d:	c7 44 24 04 cb 00 00 	movl   $0xcb,0x4(%esp)
  101444:	00 
  101445:	c7 04 24 2c a4 10 00 	movl   $0x10a42c,(%esp)
  10144c:	e8 e7 f4 ff ff       	call   100938 <debug_panic>
	pp2 = mem_alloc(); assert(pp2 != 0);
  101451:	e8 75 fb ff ff       	call   100fcb <mem_alloc>
  101456:	89 45 ec             	mov    %eax,-0x14(%ebp)
  101459:	83 7d ec 00          	cmpl   $0x0,-0x14(%ebp)
  10145d:	75 24                	jne    101483 <mem_check+0x3dc>
  10145f:	c7 44 24 0c 0c a5 10 	movl   $0x10a50c,0xc(%esp)
  101466:	00 
  101467:	c7 44 24 08 ea a3 10 	movl   $0x10a3ea,0x8(%esp)
  10146e:	00 
  10146f:	c7 44 24 04 cc 00 00 	movl   $0xcc,0x4(%esp)
  101476:	00 
  101477:	c7 04 24 2c a4 10 00 	movl   $0x10a42c,(%esp)
  10147e:	e8 b5 f4 ff ff       	call   100938 <debug_panic>
	assert(pp0);
  101483:	83 7d e4 00          	cmpl   $0x0,-0x1c(%ebp)
  101487:	75 24                	jne    1014ad <mem_check+0x406>
  101489:	c7 44 24 0c 15 a5 10 	movl   $0x10a515,0xc(%esp)
  101490:	00 
  101491:	c7 44 24 08 ea a3 10 	movl   $0x10a3ea,0x8(%esp)
  101498:	00 
  101499:	c7 44 24 04 cd 00 00 	movl   $0xcd,0x4(%esp)
  1014a0:	00 
  1014a1:	c7 04 24 2c a4 10 00 	movl   $0x10a42c,(%esp)
  1014a8:	e8 8b f4 ff ff       	call   100938 <debug_panic>
	assert(pp1 && pp1 != pp0);
  1014ad:	83 7d e8 00          	cmpl   $0x0,-0x18(%ebp)
  1014b1:	74 08                	je     1014bb <mem_check+0x414>
  1014b3:	8b 45 e8             	mov    -0x18(%ebp),%eax
  1014b6:	3b 45 e4             	cmp    -0x1c(%ebp),%eax
  1014b9:	75 24                	jne    1014df <mem_check+0x438>
  1014bb:	c7 44 24 0c 19 a5 10 	movl   $0x10a519,0xc(%esp)
  1014c2:	00 
  1014c3:	c7 44 24 08 ea a3 10 	movl   $0x10a3ea,0x8(%esp)
  1014ca:	00 
  1014cb:	c7 44 24 04 ce 00 00 	movl   $0xce,0x4(%esp)
  1014d2:	00 
  1014d3:	c7 04 24 2c a4 10 00 	movl   $0x10a42c,(%esp)
  1014da:	e8 59 f4 ff ff       	call   100938 <debug_panic>
	assert(pp2 && pp2 != pp1 && pp2 != pp0);
  1014df:	83 7d ec 00          	cmpl   $0x0,-0x14(%ebp)
  1014e3:	74 10                	je     1014f5 <mem_check+0x44e>
  1014e5:	8b 45 ec             	mov    -0x14(%ebp),%eax
  1014e8:	3b 45 e8             	cmp    -0x18(%ebp),%eax
  1014eb:	74 08                	je     1014f5 <mem_check+0x44e>
  1014ed:	8b 45 ec             	mov    -0x14(%ebp),%eax
  1014f0:	3b 45 e4             	cmp    -0x1c(%ebp),%eax
  1014f3:	75 24                	jne    101519 <mem_check+0x472>
  1014f5:	c7 44 24 0c 2c a5 10 	movl   $0x10a52c,0xc(%esp)
  1014fc:	00 
  1014fd:	c7 44 24 08 ea a3 10 	movl   $0x10a3ea,0x8(%esp)
  101504:	00 
  101505:	c7 44 24 04 cf 00 00 	movl   $0xcf,0x4(%esp)
  10150c:	00 
  10150d:	c7 04 24 2c a4 10 00 	movl   $0x10a42c,(%esp)
  101514:	e8 1f f4 ff ff       	call   100938 <debug_panic>
	assert(mem_alloc() == 0);
  101519:	e8 ad fa ff ff       	call   100fcb <mem_alloc>
  10151e:	85 c0                	test   %eax,%eax
  101520:	74 24                	je     101546 <mem_check+0x49f>
  101522:	c7 44 24 0c c2 a5 10 	movl   $0x10a5c2,0xc(%esp)
  101529:	00 
  10152a:	c7 44 24 08 ea a3 10 	movl   $0x10a3ea,0x8(%esp)
  101531:	00 
  101532:	c7 44 24 04 d0 00 00 	movl   $0xd0,0x4(%esp)
  101539:	00 
  10153a:	c7 04 24 2c a4 10 00 	movl   $0x10a42c,(%esp)
  101541:	e8 f2 f3 ff ff       	call   100938 <debug_panic>

	// give free list back
	mem_freelist = fl;
  101546:	8b 45 e0             	mov    -0x20(%ebp),%eax
  101549:	a3 40 8f 38 00       	mov    %eax,0x388f40

	// free the pages we took
	mem_free(pp0);
  10154e:	8b 45 e4             	mov    -0x1c(%ebp),%eax
  101551:	89 04 24             	mov    %eax,(%esp)
  101554:	e8 c4 fa ff ff       	call   10101d <mem_free>
	mem_free(pp1);
  101559:	8b 45 e8             	mov    -0x18(%ebp),%eax
  10155c:	89 04 24             	mov    %eax,(%esp)
  10155f:	e8 b9 fa ff ff       	call   10101d <mem_free>
	mem_free(pp2);
  101564:	8b 45 ec             	mov    -0x14(%ebp),%eax
  101567:	89 04 24             	mov    %eax,(%esp)
  10156a:	e8 ae fa ff ff       	call   10101d <mem_free>

	cprintf("mem_check() succeeded!\n");
  10156f:	c7 04 24 d3 a5 10 00 	movl   $0x10a5d3,(%esp)
  101576:	e8 55 83 00 00       	call   1098d0 <cprintf>
}
  10157b:	c9                   	leave  
  10157c:	c3                   	ret    
  10157d:	66 90                	xchg   %ax,%ax
  10157f:	90                   	nop

00101580 <xchg>:
}

// Atomically set *addr to newval and return the old value of *addr.
static inline uint32_t
xchg(volatile uint32_t *addr, uint32_t newval)
{
  101580:	55                   	push   %ebp
  101581:	89 e5                	mov    %esp,%ebp
  101583:	53                   	push   %ebx
  101584:	83 ec 10             	sub    $0x10,%esp
	uint32_t result;

	// The + in "+m" denotes a read-modify-write operand.
	asm volatile("lock; xchgl %0, %1" :
	       "+m" (*addr), "=a" (result) :
  101587:	8b 55 08             	mov    0x8(%ebp),%edx
xchg(volatile uint32_t *addr, uint32_t newval)
{
	uint32_t result;

	// The + in "+m" denotes a read-modify-write operand.
	asm volatile("lock; xchgl %0, %1" :
  10158a:	8b 45 0c             	mov    0xc(%ebp),%eax
	       "+m" (*addr), "=a" (result) :
  10158d:	8b 4d 08             	mov    0x8(%ebp),%ecx
xchg(volatile uint32_t *addr, uint32_t newval)
{
	uint32_t result;

	// The + in "+m" denotes a read-modify-write operand.
	asm volatile("lock; xchgl %0, %1" :
  101590:	89 c3                	mov    %eax,%ebx
  101592:	89 d8                	mov    %ebx,%eax
  101594:	f0 87 02             	lock xchg %eax,(%edx)
  101597:	89 c3                	mov    %eax,%ebx
  101599:	89 5d f8             	mov    %ebx,-0x8(%ebp)
	       "+m" (*addr), "=a" (result) :
	       "1" (newval) :
	       "cc");
	return result;
  10159c:	8b 45 f8             	mov    -0x8(%ebp),%eax
}
  10159f:	83 c4 10             	add    $0x10,%esp
  1015a2:	5b                   	pop    %ebx
  1015a3:	5d                   	pop    %ebp
  1015a4:	c3                   	ret    

001015a5 <cpu_cur>:
#define cpu_disabled(c)		0

// Find the CPU struct representing the current CPU.
// It always resides at the bottom of the page containing the CPU's stack.
static inline cpu *
cpu_cur() {
  1015a5:	55                   	push   %ebp
  1015a6:	89 e5                	mov    %esp,%ebp
  1015a8:	53                   	push   %ebx
  1015a9:	83 ec 24             	sub    $0x24,%esp

static gcc_inline uint32_t
read_esp(void)
{
        uint32_t esp;
        __asm __volatile("movl %%esp,%0" : "=rm" (esp));
  1015ac:	89 e3                	mov    %esp,%ebx
  1015ae:	89 5d ec             	mov    %ebx,-0x14(%ebp)
        return esp;
  1015b1:	8b 45 ec             	mov    -0x14(%ebp),%eax
	cpu *c = (cpu*)ROUNDDOWN(read_esp(), PAGESIZE);
  1015b4:	89 45 f4             	mov    %eax,-0xc(%ebp)
  1015b7:	8b 45 f4             	mov    -0xc(%ebp),%eax
  1015ba:	25 00 f0 ff ff       	and    $0xfffff000,%eax
  1015bf:	89 45 f0             	mov    %eax,-0x10(%ebp)
	assert(c->magic == CPU_MAGIC);
  1015c2:	8b 45 f0             	mov    -0x10(%ebp),%eax
  1015c5:	8b 80 b8 00 00 00    	mov    0xb8(%eax),%eax
  1015cb:	3d 32 54 76 98       	cmp    $0x98765432,%eax
  1015d0:	74 24                	je     1015f6 <cpu_cur+0x51>
  1015d2:	c7 44 24 0c eb a5 10 	movl   $0x10a5eb,0xc(%esp)
  1015d9:	00 
  1015da:	c7 44 24 08 01 a6 10 	movl   $0x10a601,0x8(%esp)
  1015e1:	00 
  1015e2:	c7 44 24 04 5c 00 00 	movl   $0x5c,0x4(%esp)
  1015e9:	00 
  1015ea:	c7 04 24 16 a6 10 00 	movl   $0x10a616,(%esp)
  1015f1:	e8 42 f3 ff ff       	call   100938 <debug_panic>
	return c;
  1015f6:	8b 45 f0             	mov    -0x10(%ebp),%eax
}
  1015f9:	83 c4 24             	add    $0x24,%esp
  1015fc:	5b                   	pop    %ebx
  1015fd:	5d                   	pop    %ebp
  1015fe:	c3                   	ret    

001015ff <cpu_onboot>:

// Returns true if we're running on the bootstrap CPU.
static inline int
cpu_onboot() {
  1015ff:	55                   	push   %ebp
  101600:	89 e5                	mov    %esp,%ebp
  101602:	83 ec 08             	sub    $0x8,%esp
	return cpu_cur() == &cpu_boot;
  101605:	e8 9b ff ff ff       	call   1015a5 <cpu_cur>
  10160a:	3d 00 f0 10 00       	cmp    $0x10f000,%eax
  10160f:	0f 94 c0             	sete   %al
  101612:	0f b6 c0             	movzbl %al,%eax
}
  101615:	c9                   	leave  
  101616:	c3                   	ret    

00101617 <cpu_init>:
	magic: CPU_MAGIC
};


void cpu_init()
{
  101617:	55                   	push   %ebp
  101618:	89 e5                	mov    %esp,%ebp
  10161a:	53                   	push   %ebx
  10161b:	83 ec 14             	sub    $0x14,%esp
	cpu *c = cpu_cur();
  10161e:	e8 82 ff ff ff       	call   1015a5 <cpu_cur>
  101623:	89 45 f4             	mov    %eax,-0xc(%ebp)
	// Load the GDT
	struct pseudodesc gdt_pd = {
  101626:	66 c7 45 ec 37 00    	movw   $0x37,-0x14(%ebp)
		sizeof(c->gdt) - 1, (uint32_t) c->gdt };
  10162c:	8b 45 f4             	mov    -0xc(%ebp),%eax

void cpu_init()
{
	cpu *c = cpu_cur();
	// Load the GDT
	struct pseudodesc gdt_pd = {
  10162f:	89 45 ee             	mov    %eax,-0x12(%ebp)
		sizeof(c->gdt) - 1, (uint32_t) c->gdt };
	asm volatile("lgdt %0" : : "m" (gdt_pd));
  101632:	0f 01 55 ec          	lgdtl  -0x14(%ebp)
	// Reload all segment registers.
	asm volatile("movw %%ax,%%gs" :: "a" (CPU_GDT_UDATA|3));
  101636:	b8 23 00 00 00       	mov    $0x23,%eax
  10163b:	8e e8                	mov    %eax,%gs
	asm volatile("movw %%ax,%%fs" :: "a" (CPU_GDT_UDATA|3));
  10163d:	b8 23 00 00 00       	mov    $0x23,%eax
  101642:	8e e0                	mov    %eax,%fs
	asm volatile("movw %%ax,%%es" :: "a" (CPU_GDT_KDATA));
  101644:	b8 10 00 00 00       	mov    $0x10,%eax
  101649:	8e c0                	mov    %eax,%es
	asm volatile("movw %%ax,%%ds" :: "a" (CPU_GDT_KDATA));
  10164b:	b8 10 00 00 00       	mov    $0x10,%eax
  101650:	8e d8                	mov    %eax,%ds
	asm volatile("movw %%ax,%%ss" :: "a" (CPU_GDT_KDATA));
  101652:	b8 10 00 00 00       	mov    $0x10,%eax
  101657:	8e d0                	mov    %eax,%ss
	asm volatile("ljmp %0,$1f\n 1:\n" :: "i" (CPU_GDT_KCODE)); // reload CS
  101659:	ea 60 16 10 00 08 00 	ljmp   $0x8,$0x101660
	// We don't need an LDT.
	asm volatile("lldt %%ax" :: "a" (0));
  101660:	b8 00 00 00 00       	mov    $0x0,%eax
  101665:	0f 00 d0             	lldt   %ax
	
	c->tss.ts_ss0 = CPU_GDT_KDATA;
  101668:	8b 45 f4             	mov    -0xc(%ebp),%eax
  10166b:	66 c7 40 40 10 00    	movw   $0x10,0x40(%eax)
	c->tss.ts_esp0 = (uintptr_t)(c->kstackhi);
  101671:	8b 45 f4             	mov    -0xc(%ebp),%eax
  101674:	05 00 10 00 00       	add    $0x1000,%eax
  101679:	89 c2                	mov    %eax,%edx
  10167b:	8b 45 f4             	mov    -0xc(%ebp),%eax
  10167e:	89 50 3c             	mov    %edx,0x3c(%eax)
	c->gdt[CPU_GDT_TSS >> 3] = SEGDESC16(0, STS_T32A, (uintptr_t)(&c->tss), sizeof(c->tss)-1, 0);
  101681:	8b 45 f4             	mov    -0xc(%ebp),%eax
  101684:	83 c0 38             	add    $0x38,%eax
  101687:	89 c3                	mov    %eax,%ebx
  101689:	8b 45 f4             	mov    -0xc(%ebp),%eax
  10168c:	83 c0 38             	add    $0x38,%eax
  10168f:	c1 e8 10             	shr    $0x10,%eax
  101692:	89 c1                	mov    %eax,%ecx
  101694:	8b 45 f4             	mov    -0xc(%ebp),%eax
  101697:	83 c0 38             	add    $0x38,%eax
  10169a:	c1 e8 18             	shr    $0x18,%eax
  10169d:	89 c2                	mov    %eax,%edx
  10169f:	8b 45 f4             	mov    -0xc(%ebp),%eax
  1016a2:	66 c7 40 30 67 00    	movw   $0x67,0x30(%eax)
  1016a8:	8b 45 f4             	mov    -0xc(%ebp),%eax
  1016ab:	66 89 58 32          	mov    %bx,0x32(%eax)
  1016af:	8b 45 f4             	mov    -0xc(%ebp),%eax
  1016b2:	88 48 34             	mov    %cl,0x34(%eax)
  1016b5:	8b 45 f4             	mov    -0xc(%ebp),%eax
  1016b8:	0f b6 48 35          	movzbl 0x35(%eax),%ecx
  1016bc:	83 e1 f0             	and    $0xfffffff0,%ecx
  1016bf:	83 c9 09             	or     $0x9,%ecx
  1016c2:	88 48 35             	mov    %cl,0x35(%eax)
  1016c5:	8b 45 f4             	mov    -0xc(%ebp),%eax
  1016c8:	0f b6 48 35          	movzbl 0x35(%eax),%ecx
  1016cc:	83 e1 ef             	and    $0xffffffef,%ecx
  1016cf:	88 48 35             	mov    %cl,0x35(%eax)
  1016d2:	8b 45 f4             	mov    -0xc(%ebp),%eax
  1016d5:	0f b6 48 35          	movzbl 0x35(%eax),%ecx
  1016d9:	83 e1 9f             	and    $0xffffff9f,%ecx
  1016dc:	88 48 35             	mov    %cl,0x35(%eax)
  1016df:	8b 45 f4             	mov    -0xc(%ebp),%eax
  1016e2:	0f b6 48 35          	movzbl 0x35(%eax),%ecx
  1016e6:	83 c9 80             	or     $0xffffff80,%ecx
  1016e9:	88 48 35             	mov    %cl,0x35(%eax)
  1016ec:	8b 45 f4             	mov    -0xc(%ebp),%eax
  1016ef:	0f b6 48 36          	movzbl 0x36(%eax),%ecx
  1016f3:	83 e1 f0             	and    $0xfffffff0,%ecx
  1016f6:	88 48 36             	mov    %cl,0x36(%eax)
  1016f9:	8b 45 f4             	mov    -0xc(%ebp),%eax
  1016fc:	0f b6 48 36          	movzbl 0x36(%eax),%ecx
  101700:	83 e1 ef             	and    $0xffffffef,%ecx
  101703:	88 48 36             	mov    %cl,0x36(%eax)
  101706:	8b 45 f4             	mov    -0xc(%ebp),%eax
  101709:	0f b6 48 36          	movzbl 0x36(%eax),%ecx
  10170d:	83 e1 df             	and    $0xffffffdf,%ecx
  101710:	88 48 36             	mov    %cl,0x36(%eax)
  101713:	8b 45 f4             	mov    -0xc(%ebp),%eax
  101716:	0f b6 48 36          	movzbl 0x36(%eax),%ecx
  10171a:	83 c9 40             	or     $0x40,%ecx
  10171d:	88 48 36             	mov    %cl,0x36(%eax)
  101720:	8b 45 f4             	mov    -0xc(%ebp),%eax
  101723:	0f b6 48 36          	movzbl 0x36(%eax),%ecx
  101727:	83 e1 7f             	and    $0x7f,%ecx
  10172a:	88 48 36             	mov    %cl,0x36(%eax)
  10172d:	8b 45 f4             	mov    -0xc(%ebp),%eax
  101730:	88 50 37             	mov    %dl,0x37(%eax)
  101733:	66 c7 45 f2 30 00    	movw   $0x30,-0xe(%ebp)
}

static gcc_inline void
ltr(uint16_t sel)
{
	__asm __volatile("ltr %0" : : "r" (sel));
  101739:	0f b7 45 f2          	movzwl -0xe(%ebp),%eax
  10173d:	0f 00 d8             	ltr    %ax
	ltr(CPU_GDT_TSS);
}
  101740:	83 c4 14             	add    $0x14,%esp
  101743:	5b                   	pop    %ebx
  101744:	5d                   	pop    %ebp
  101745:	c3                   	ret    

00101746 <cpu_alloc>:

// Allocate an additional cpu struct representing a non-bootstrap processor.
cpu *
cpu_alloc(void)
{
  101746:	55                   	push   %ebp
  101747:	89 e5                	mov    %esp,%ebp
  101749:	83 ec 28             	sub    $0x28,%esp
	// Pointer to the cpu.next pointer of the last CPU on the list,
	// for chaining on new CPUs in cpu_alloc().  Note: static.
	static cpu **cpu_tail = &cpu_boot.next;

	pageinfo *pi = mem_alloc();
  10174c:	e8 7a f8 ff ff       	call   100fcb <mem_alloc>
  101751:	89 45 f4             	mov    %eax,-0xc(%ebp)
	assert(pi != 0);	// shouldn't be out of memory just yet!
  101754:	83 7d f4 00          	cmpl   $0x0,-0xc(%ebp)
  101758:	75 24                	jne    10177e <cpu_alloc+0x38>
  10175a:	c7 44 24 0c 23 a6 10 	movl   $0x10a623,0xc(%esp)
  101761:	00 
  101762:	c7 44 24 08 01 a6 10 	movl   $0x10a601,0x8(%esp)
  101769:	00 
  10176a:	c7 44 24 04 5a 00 00 	movl   $0x5a,0x4(%esp)
  101771:	00 
  101772:	c7 04 24 2b a6 10 00 	movl   $0x10a62b,(%esp)
  101779:	e8 ba f1 ff ff       	call   100938 <debug_panic>

	cpu *c = (cpu*) mem_pi2ptr(pi);
  10177e:	8b 55 f4             	mov    -0xc(%ebp),%edx
  101781:	a1 50 8f 38 00       	mov    0x388f50,%eax
  101786:	89 d1                	mov    %edx,%ecx
  101788:	29 c1                	sub    %eax,%ecx
  10178a:	89 c8                	mov    %ecx,%eax
  10178c:	c1 f8 03             	sar    $0x3,%eax
  10178f:	c1 e0 0c             	shl    $0xc,%eax
  101792:	89 45 f0             	mov    %eax,-0x10(%ebp)

	// Clear the whole page for good measure: cpu struct and kernel stack
	memset(c, 0, PAGESIZE);
  101795:	c7 44 24 08 00 10 00 	movl   $0x1000,0x8(%esp)
  10179c:	00 
  10179d:	c7 44 24 04 00 00 00 	movl   $0x0,0x4(%esp)
  1017a4:	00 
  1017a5:	8b 45 f0             	mov    -0x10(%ebp),%eax
  1017a8:	89 04 24             	mov    %eax,(%esp)
  1017ab:	e8 91 84 00 00       	call   109c41 <memset>
	// when it starts up and calls cpu_init().

	// Initialize the new cpu's GDT by copying from the cpu_boot.
	// The TSS descriptor will be filled in later by cpu_init().
	assert(sizeof(c->gdt) == sizeof(segdesc) * CPU_GDT_NDESC);
	memmove(c->gdt, cpu_boot.gdt, sizeof(c->gdt));
  1017b0:	8b 45 f0             	mov    -0x10(%ebp),%eax
  1017b3:	c7 44 24 08 38 00 00 	movl   $0x38,0x8(%esp)
  1017ba:	00 
  1017bb:	c7 44 24 04 00 f0 10 	movl   $0x10f000,0x4(%esp)
  1017c2:	00 
  1017c3:	89 04 24             	mov    %eax,(%esp)
  1017c6:	e8 e4 84 00 00       	call   109caf <memmove>

	// Magic verification tag for stack overflow/cpu corruption checking
	c->magic = CPU_MAGIC;
  1017cb:	8b 45 f0             	mov    -0x10(%ebp),%eax
  1017ce:	c7 80 b8 00 00 00 32 	movl   $0x98765432,0xb8(%eax)
  1017d5:	54 76 98 

	// Chain the new CPU onto the tail of the list.
	*cpu_tail = c;
  1017d8:	a1 00 00 11 00       	mov    0x110000,%eax
  1017dd:	8b 55 f0             	mov    -0x10(%ebp),%edx
  1017e0:	89 10                	mov    %edx,(%eax)
	cpu_tail = &c->next;
  1017e2:	8b 45 f0             	mov    -0x10(%ebp),%eax
  1017e5:	05 a8 00 00 00       	add    $0xa8,%eax
  1017ea:	a3 00 00 11 00       	mov    %eax,0x110000

	return c;
  1017ef:	8b 45 f0             	mov    -0x10(%ebp),%eax
}
  1017f2:	c9                   	leave  
  1017f3:	c3                   	ret    

001017f4 <cpu_bootothers>:

void
cpu_bootothers(void)
{
  1017f4:	55                   	push   %ebp
  1017f5:	89 e5                	mov    %esp,%ebp
  1017f7:	83 ec 28             	sub    $0x28,%esp
	extern uint8_t _binary_obj_boot_bootother_start[],
			_binary_obj_boot_bootother_size[];

	if (!cpu_onboot()) {
  1017fa:	e8 00 fe ff ff       	call   1015ff <cpu_onboot>
  1017ff:	85 c0                	test   %eax,%eax
  101801:	75 1f                	jne    101822 <cpu_bootothers+0x2e>
		// Just inform the boot cpu we've booted.
		xchg(&cpu_cur()->booted, 1);
  101803:	e8 9d fd ff ff       	call   1015a5 <cpu_cur>
  101808:	05 b0 00 00 00       	add    $0xb0,%eax
  10180d:	c7 44 24 04 01 00 00 	movl   $0x1,0x4(%esp)
  101814:	00 
  101815:	89 04 24             	mov    %eax,(%esp)
  101818:	e8 63 fd ff ff       	call   101580 <xchg>
		return;
  10181d:	e9 92 00 00 00       	jmp    1018b4 <cpu_bootothers+0xc0>
	}

	// Write bootstrap code to unused memory at 0x1000.
	uint8_t *code = (uint8_t*)0x1000;
  101822:	c7 45 f0 00 10 00 00 	movl   $0x1000,-0x10(%ebp)
	memmove(code, _binary_obj_boot_bootother_start,
  101829:	b8 6a 00 00 00       	mov    $0x6a,%eax
  10182e:	89 44 24 08          	mov    %eax,0x8(%esp)
  101832:	c7 44 24 04 cf 20 18 	movl   $0x1820cf,0x4(%esp)
  101839:	00 
  10183a:	8b 45 f0             	mov    -0x10(%ebp),%eax
  10183d:	89 04 24             	mov    %eax,(%esp)
  101840:	e8 6a 84 00 00       	call   109caf <memmove>
		(uint32_t)_binary_obj_boot_bootother_size);

	cpu *c;
	for(c = &cpu_boot; c; c = c->next){
  101845:	c7 45 f4 00 f0 10 00 	movl   $0x10f000,-0xc(%ebp)
  10184c:	eb 60                	jmp    1018ae <cpu_bootothers+0xba>
		if(c == cpu_cur())  // We''ve started already.
  10184e:	e8 52 fd ff ff       	call   1015a5 <cpu_cur>
  101853:	3b 45 f4             	cmp    -0xc(%ebp),%eax
  101856:	74 49                	je     1018a1 <cpu_bootothers+0xad>
			continue;

		// Fill in %esp, %eip and start code on cpu.
		*(void**)(code-4) = c->kstackhi;
  101858:	8b 45 f0             	mov    -0x10(%ebp),%eax
  10185b:	83 e8 04             	sub    $0x4,%eax
  10185e:	8b 55 f4             	mov    -0xc(%ebp),%edx
  101861:	81 c2 00 10 00 00    	add    $0x1000,%edx
  101867:	89 10                	mov    %edx,(%eax)
		*(void**)(code-8) = init;
  101869:	8b 45 f0             	mov    -0x10(%ebp),%eax
  10186c:	83 e8 08             	sub    $0x8,%eax
  10186f:	c7 00 9a 00 10 00    	movl   $0x10009a,(%eax)
		lapic_startcpu(c->id, (uint32_t)code);
  101875:	8b 55 f0             	mov    -0x10(%ebp),%edx
  101878:	8b 45 f4             	mov    -0xc(%ebp),%eax
  10187b:	0f b6 80 ac 00 00 00 	movzbl 0xac(%eax),%eax
  101882:	0f b6 c0             	movzbl %al,%eax
  101885:	89 54 24 04          	mov    %edx,0x4(%esp)
  101889:	89 04 24             	mov    %eax,(%esp)
  10188c:	e8 36 76 00 00       	call   108ec7 <lapic_startcpu>

		// Wait for cpu to get through bootstrap.
		while(c->booted == 0)
  101891:	90                   	nop
  101892:	8b 45 f4             	mov    -0xc(%ebp),%eax
  101895:	8b 80 b0 00 00 00    	mov    0xb0(%eax),%eax
  10189b:	85 c0                	test   %eax,%eax
  10189d:	74 f3                	je     101892 <cpu_bootothers+0x9e>
  10189f:	eb 01                	jmp    1018a2 <cpu_bootothers+0xae>
		(uint32_t)_binary_obj_boot_bootother_size);

	cpu *c;
	for(c = &cpu_boot; c; c = c->next){
		if(c == cpu_cur())  // We''ve started already.
			continue;
  1018a1:	90                   	nop
	uint8_t *code = (uint8_t*)0x1000;
	memmove(code, _binary_obj_boot_bootother_start,
		(uint32_t)_binary_obj_boot_bootother_size);

	cpu *c;
	for(c = &cpu_boot; c; c = c->next){
  1018a2:	8b 45 f4             	mov    -0xc(%ebp),%eax
  1018a5:	8b 80 a8 00 00 00    	mov    0xa8(%eax),%eax
  1018ab:	89 45 f4             	mov    %eax,-0xc(%ebp)
  1018ae:	83 7d f4 00          	cmpl   $0x0,-0xc(%ebp)
  1018b2:	75 9a                	jne    10184e <cpu_bootothers+0x5a>

		// Wait for cpu to get through bootstrap.
		while(c->booted == 0)
			;
	}
}
  1018b4:	c9                   	leave  
  1018b5:	c3                   	ret    
  1018b6:	66 90                	xchg   %ax,%ax

001018b8 <cpu_cur>:
#define cpu_disabled(c)		0

// Find the CPU struct representing the current CPU.
// It always resides at the bottom of the page containing the CPU's stack.
static inline cpu *
cpu_cur() {
  1018b8:	55                   	push   %ebp
  1018b9:	89 e5                	mov    %esp,%ebp
  1018bb:	53                   	push   %ebx
  1018bc:	83 ec 24             	sub    $0x24,%esp

static gcc_inline uint32_t
read_esp(void)
{
        uint32_t esp;
        __asm __volatile("movl %%esp,%0" : "=rm" (esp));
  1018bf:	89 e3                	mov    %esp,%ebx
  1018c1:	89 5d ec             	mov    %ebx,-0x14(%ebp)
        return esp;
  1018c4:	8b 45 ec             	mov    -0x14(%ebp),%eax
	cpu *c = (cpu*)ROUNDDOWN(read_esp(), PAGESIZE);
  1018c7:	89 45 f4             	mov    %eax,-0xc(%ebp)
  1018ca:	8b 45 f4             	mov    -0xc(%ebp),%eax
  1018cd:	25 00 f0 ff ff       	and    $0xfffff000,%eax
  1018d2:	89 45 f0             	mov    %eax,-0x10(%ebp)
	assert(c->magic == CPU_MAGIC);
  1018d5:	8b 45 f0             	mov    -0x10(%ebp),%eax
  1018d8:	8b 80 b8 00 00 00    	mov    0xb8(%eax),%eax
  1018de:	3d 32 54 76 98       	cmp    $0x98765432,%eax
  1018e3:	74 24                	je     101909 <cpu_cur+0x51>
  1018e5:	c7 44 24 0c 40 a6 10 	movl   $0x10a640,0xc(%esp)
  1018ec:	00 
  1018ed:	c7 44 24 08 56 a6 10 	movl   $0x10a656,0x8(%esp)
  1018f4:	00 
  1018f5:	c7 44 24 04 5c 00 00 	movl   $0x5c,0x4(%esp)
  1018fc:	00 
  1018fd:	c7 04 24 6b a6 10 00 	movl   $0x10a66b,(%esp)
  101904:	e8 2f f0 ff ff       	call   100938 <debug_panic>
	return c;
  101909:	8b 45 f0             	mov    -0x10(%ebp),%eax
}
  10190c:	83 c4 24             	add    $0x24,%esp
  10190f:	5b                   	pop    %ebx
  101910:	5d                   	pop    %ebp
  101911:	c3                   	ret    

00101912 <cpu_onboot>:

// Returns true if we're running on the bootstrap CPU.
static inline int
cpu_onboot() {
  101912:	55                   	push   %ebp
  101913:	89 e5                	mov    %esp,%ebp
  101915:	83 ec 08             	sub    $0x8,%esp
	return cpu_cur() == &cpu_boot;
  101918:	e8 9b ff ff ff       	call   1018b8 <cpu_cur>
  10191d:	3d 00 f0 10 00       	cmp    $0x10f000,%eax
  101922:	0f 94 c0             	sete   %al
  101925:	0f b6 c0             	movzbl %al,%eax
}
  101928:	c9                   	leave  
  101929:	c3                   	ret    

0010192a <trap_init_idt>:
};


static void
trap_init_idt(void)
{
  10192a:	55                   	push   %ebp
  10192b:	89 e5                	mov    %esp,%ebp
  10192d:	83 ec 10             	sub    $0x10,%esp
	int i;
	extern segdesc gdt[];
	for(i=0; i<=50; i++){
  101930:	c7 45 fc 00 00 00 00 	movl   $0x0,-0x4(%ebp)
  101937:	e9 c3 00 00 00       	jmp    1019ff <trap_init_idt+0xd5>
		SETGATE(idt[i], 0, CPU_GDT_KCODE, vectors[i], 0);
  10193c:	8b 45 fc             	mov    -0x4(%ebp),%eax
  10193f:	8b 04 85 10 00 11 00 	mov    0x110010(,%eax,4),%eax
  101946:	89 c2                	mov    %eax,%edx
  101948:	8b 45 fc             	mov    -0x4(%ebp),%eax
  10194b:	66 89 14 c5 40 44 18 	mov    %dx,0x184440(,%eax,8)
  101952:	00 
  101953:	8b 45 fc             	mov    -0x4(%ebp),%eax
  101956:	66 c7 04 c5 42 44 18 	movw   $0x8,0x184442(,%eax,8)
  10195d:	00 08 00 
  101960:	8b 45 fc             	mov    -0x4(%ebp),%eax
  101963:	0f b6 14 c5 44 44 18 	movzbl 0x184444(,%eax,8),%edx
  10196a:	00 
  10196b:	83 e2 e0             	and    $0xffffffe0,%edx
  10196e:	88 14 c5 44 44 18 00 	mov    %dl,0x184444(,%eax,8)
  101975:	8b 45 fc             	mov    -0x4(%ebp),%eax
  101978:	0f b6 14 c5 44 44 18 	movzbl 0x184444(,%eax,8),%edx
  10197f:	00 
  101980:	83 e2 1f             	and    $0x1f,%edx
  101983:	88 14 c5 44 44 18 00 	mov    %dl,0x184444(,%eax,8)
  10198a:	8b 45 fc             	mov    -0x4(%ebp),%eax
  10198d:	0f b6 14 c5 45 44 18 	movzbl 0x184445(,%eax,8),%edx
  101994:	00 
  101995:	83 e2 f0             	and    $0xfffffff0,%edx
  101998:	83 ca 0e             	or     $0xe,%edx
  10199b:	88 14 c5 45 44 18 00 	mov    %dl,0x184445(,%eax,8)
  1019a2:	8b 45 fc             	mov    -0x4(%ebp),%eax
  1019a5:	0f b6 14 c5 45 44 18 	movzbl 0x184445(,%eax,8),%edx
  1019ac:	00 
  1019ad:	83 e2 ef             	and    $0xffffffef,%edx
  1019b0:	88 14 c5 45 44 18 00 	mov    %dl,0x184445(,%eax,8)
  1019b7:	8b 45 fc             	mov    -0x4(%ebp),%eax
  1019ba:	0f b6 14 c5 45 44 18 	movzbl 0x184445(,%eax,8),%edx
  1019c1:	00 
  1019c2:	83 e2 9f             	and    $0xffffff9f,%edx
  1019c5:	88 14 c5 45 44 18 00 	mov    %dl,0x184445(,%eax,8)
  1019cc:	8b 45 fc             	mov    -0x4(%ebp),%eax
  1019cf:	0f b6 14 c5 45 44 18 	movzbl 0x184445(,%eax,8),%edx
  1019d6:	00 
  1019d7:	83 ca 80             	or     $0xffffff80,%edx
  1019da:	88 14 c5 45 44 18 00 	mov    %dl,0x184445(,%eax,8)
  1019e1:	8b 45 fc             	mov    -0x4(%ebp),%eax
  1019e4:	8b 04 85 10 00 11 00 	mov    0x110010(,%eax,4),%eax
  1019eb:	c1 e8 10             	shr    $0x10,%eax
  1019ee:	89 c2                	mov    %eax,%edx
  1019f0:	8b 45 fc             	mov    -0x4(%ebp),%eax
  1019f3:	66 89 14 c5 46 44 18 	mov    %dx,0x184446(,%eax,8)
  1019fa:	00 
static void
trap_init_idt(void)
{
	int i;
	extern segdesc gdt[];
	for(i=0; i<=50; i++){
  1019fb:	83 45 fc 01          	addl   $0x1,-0x4(%ebp)
  1019ff:	83 7d fc 32          	cmpl   $0x32,-0x4(%ebp)
  101a03:	0f 8e 33 ff ff ff    	jle    10193c <trap_init_idt+0x12>
		SETGATE(idt[i], 0, CPU_GDT_KCODE, vectors[i], 0);
	}
	SETGATE(idt[T_BRKPT], 0,CPU_GDT_KCODE, vectors[T_BRKPT], 3);
  101a09:	a1 1c 00 11 00       	mov    0x11001c,%eax
  101a0e:	66 a3 58 44 18 00    	mov    %ax,0x184458
  101a14:	66 c7 05 5a 44 18 00 	movw   $0x8,0x18445a
  101a1b:	08 00 
  101a1d:	0f b6 05 5c 44 18 00 	movzbl 0x18445c,%eax
  101a24:	83 e0 e0             	and    $0xffffffe0,%eax
  101a27:	a2 5c 44 18 00       	mov    %al,0x18445c
  101a2c:	0f b6 05 5c 44 18 00 	movzbl 0x18445c,%eax
  101a33:	83 e0 1f             	and    $0x1f,%eax
  101a36:	a2 5c 44 18 00       	mov    %al,0x18445c
  101a3b:	0f b6 05 5d 44 18 00 	movzbl 0x18445d,%eax
  101a42:	83 e0 f0             	and    $0xfffffff0,%eax
  101a45:	83 c8 0e             	or     $0xe,%eax
  101a48:	a2 5d 44 18 00       	mov    %al,0x18445d
  101a4d:	0f b6 05 5d 44 18 00 	movzbl 0x18445d,%eax
  101a54:	83 e0 ef             	and    $0xffffffef,%eax
  101a57:	a2 5d 44 18 00       	mov    %al,0x18445d
  101a5c:	0f b6 05 5d 44 18 00 	movzbl 0x18445d,%eax
  101a63:	83 c8 60             	or     $0x60,%eax
  101a66:	a2 5d 44 18 00       	mov    %al,0x18445d
  101a6b:	0f b6 05 5d 44 18 00 	movzbl 0x18445d,%eax
  101a72:	83 c8 80             	or     $0xffffff80,%eax
  101a75:	a2 5d 44 18 00       	mov    %al,0x18445d
  101a7a:	a1 1c 00 11 00       	mov    0x11001c,%eax
  101a7f:	c1 e8 10             	shr    $0x10,%eax
  101a82:	66 a3 5e 44 18 00    	mov    %ax,0x18445e
	SETGATE(idt[T_OFLOW], 0,CPU_GDT_KCODE, vectors[T_OFLOW], 3);
  101a88:	a1 20 00 11 00       	mov    0x110020,%eax
  101a8d:	66 a3 60 44 18 00    	mov    %ax,0x184460
  101a93:	66 c7 05 62 44 18 00 	movw   $0x8,0x184462
  101a9a:	08 00 
  101a9c:	0f b6 05 64 44 18 00 	movzbl 0x184464,%eax
  101aa3:	83 e0 e0             	and    $0xffffffe0,%eax
  101aa6:	a2 64 44 18 00       	mov    %al,0x184464
  101aab:	0f b6 05 64 44 18 00 	movzbl 0x184464,%eax
  101ab2:	83 e0 1f             	and    $0x1f,%eax
  101ab5:	a2 64 44 18 00       	mov    %al,0x184464
  101aba:	0f b6 05 65 44 18 00 	movzbl 0x184465,%eax
  101ac1:	83 e0 f0             	and    $0xfffffff0,%eax
  101ac4:	83 c8 0e             	or     $0xe,%eax
  101ac7:	a2 65 44 18 00       	mov    %al,0x184465
  101acc:	0f b6 05 65 44 18 00 	movzbl 0x184465,%eax
  101ad3:	83 e0 ef             	and    $0xffffffef,%eax
  101ad6:	a2 65 44 18 00       	mov    %al,0x184465
  101adb:	0f b6 05 65 44 18 00 	movzbl 0x184465,%eax
  101ae2:	83 c8 60             	or     $0x60,%eax
  101ae5:	a2 65 44 18 00       	mov    %al,0x184465
  101aea:	0f b6 05 65 44 18 00 	movzbl 0x184465,%eax
  101af1:	83 c8 80             	or     $0xffffff80,%eax
  101af4:	a2 65 44 18 00       	mov    %al,0x184465
  101af9:	a1 20 00 11 00       	mov    0x110020,%eax
  101afe:	c1 e8 10             	shr    $0x10,%eax
  101b01:	66 a3 66 44 18 00    	mov    %ax,0x184466
	SETGATE(idt[T_SYSCALL], 0,CPU_GDT_KCODE, vectors[T_SYSCALL], 3);
  101b07:	a1 d0 00 11 00       	mov    0x1100d0,%eax
  101b0c:	66 a3 c0 45 18 00    	mov    %ax,0x1845c0
  101b12:	66 c7 05 c2 45 18 00 	movw   $0x8,0x1845c2
  101b19:	08 00 
  101b1b:	0f b6 05 c4 45 18 00 	movzbl 0x1845c4,%eax
  101b22:	83 e0 e0             	and    $0xffffffe0,%eax
  101b25:	a2 c4 45 18 00       	mov    %al,0x1845c4
  101b2a:	0f b6 05 c4 45 18 00 	movzbl 0x1845c4,%eax
  101b31:	83 e0 1f             	and    $0x1f,%eax
  101b34:	a2 c4 45 18 00       	mov    %al,0x1845c4
  101b39:	0f b6 05 c5 45 18 00 	movzbl 0x1845c5,%eax
  101b40:	83 e0 f0             	and    $0xfffffff0,%eax
  101b43:	83 c8 0e             	or     $0xe,%eax
  101b46:	a2 c5 45 18 00       	mov    %al,0x1845c5
  101b4b:	0f b6 05 c5 45 18 00 	movzbl 0x1845c5,%eax
  101b52:	83 e0 ef             	and    $0xffffffef,%eax
  101b55:	a2 c5 45 18 00       	mov    %al,0x1845c5
  101b5a:	0f b6 05 c5 45 18 00 	movzbl 0x1845c5,%eax
  101b61:	83 c8 60             	or     $0x60,%eax
  101b64:	a2 c5 45 18 00       	mov    %al,0x1845c5
  101b69:	0f b6 05 c5 45 18 00 	movzbl 0x1845c5,%eax
  101b70:	83 c8 80             	or     $0xffffff80,%eax
  101b73:	a2 c5 45 18 00       	mov    %al,0x1845c5
  101b78:	a1 d0 00 11 00       	mov    0x1100d0,%eax
  101b7d:	c1 e8 10             	shr    $0x10,%eax
  101b80:	66 a3 c6 45 18 00    	mov    %ax,0x1845c6
}
  101b86:	c9                   	leave  
  101b87:	c3                   	ret    

00101b88 <trap_init>:

void
trap_init(void)
{
  101b88:	55                   	push   %ebp
  101b89:	89 e5                	mov    %esp,%ebp
  101b8b:	83 ec 08             	sub    $0x8,%esp
	// The first time we get called on the bootstrap processor,
	// initialize the IDT.  Other CPUs will share the same IDT.
	if (cpu_onboot())
  101b8e:	e8 7f fd ff ff       	call   101912 <cpu_onboot>
  101b93:	85 c0                	test   %eax,%eax
  101b95:	74 05                	je     101b9c <trap_init+0x14>
		trap_init_idt();
  101b97:	e8 8e fd ff ff       	call   10192a <trap_init_idt>

	// Load the IDT into this processor's IDT register.
	asm volatile("lidt %0" : : "m" (idt_pd));
  101b9c:	0f 01 1d 04 00 11 00 	lidtl  0x110004

	// Check for the correct IDT and trap handler operation.
	if (cpu_onboot())
  101ba3:	e8 6a fd ff ff       	call   101912 <cpu_onboot>
  101ba8:	85 c0                	test   %eax,%eax
  101baa:	74 05                	je     101bb1 <trap_init+0x29>
		trap_check_kernel();
  101bac:	e8 6d 04 00 00       	call   10201e <trap_check_kernel>
}
  101bb1:	c9                   	leave  
  101bb2:	c3                   	ret    

00101bb3 <trap_name>:

const char *trap_name(int trapno)
{
  101bb3:	55                   	push   %ebp
  101bb4:	89 e5                	mov    %esp,%ebp
		"x87 FPU Floating-Point Error",
		"Alignment Check",
		"Machine-Check",
		"SIMD Floating-Point Exception"
	};
	if (trapno < sizeof(excnames)/sizeof(excnames[0]))
  101bb6:	8b 45 08             	mov    0x8(%ebp),%eax
  101bb9:	83 f8 13             	cmp    $0x13,%eax
  101bbc:	77 0c                	ja     101bca <trap_name+0x17>
		return excnames[trapno];
  101bbe:	8b 45 08             	mov    0x8(%ebp),%eax
  101bc1:	8b 04 85 40 ab 10 00 	mov    0x10ab40(,%eax,4),%eax
  101bc8:	eb 25                	jmp    101bef <trap_name+0x3c>
	if (trapno == T_SYSCALL)
  101bca:	83 7d 08 30          	cmpl   $0x30,0x8(%ebp)
  101bce:	75 07                	jne    101bd7 <trap_name+0x24>
		return "System call";
  101bd0:	b8 78 a6 10 00       	mov    $0x10a678,%eax
  101bd5:	eb 18                	jmp    101bef <trap_name+0x3c>
	if (trapno >= T_IRQ0 && trapno < T_IRQ0 + 16)
  101bd7:	83 7d 08 1f          	cmpl   $0x1f,0x8(%ebp)
  101bdb:	7e 0d                	jle    101bea <trap_name+0x37>
  101bdd:	83 7d 08 2f          	cmpl   $0x2f,0x8(%ebp)
  101be1:	7f 07                	jg     101bea <trap_name+0x37>
		return "Hardware Interrupt";
  101be3:	b8 84 a6 10 00       	mov    $0x10a684,%eax
  101be8:	eb 05                	jmp    101bef <trap_name+0x3c>
	return "(unknown trap)";
  101bea:	b8 97 a6 10 00       	mov    $0x10a697,%eax
}
  101bef:	5d                   	pop    %ebp
  101bf0:	c3                   	ret    

00101bf1 <trap_print_regs>:

void
trap_print_regs(pushregs *regs)
{
  101bf1:	55                   	push   %ebp
  101bf2:	89 e5                	mov    %esp,%ebp
  101bf4:	83 ec 18             	sub    $0x18,%esp
	cprintf("  edi  0x%08x\n", regs->edi);
  101bf7:	8b 45 08             	mov    0x8(%ebp),%eax
  101bfa:	8b 00                	mov    (%eax),%eax
  101bfc:	89 44 24 04          	mov    %eax,0x4(%esp)
  101c00:	c7 04 24 a6 a6 10 00 	movl   $0x10a6a6,(%esp)
  101c07:	e8 c4 7c 00 00       	call   1098d0 <cprintf>
	cprintf("  esi  0x%08x\n", regs->esi);
  101c0c:	8b 45 08             	mov    0x8(%ebp),%eax
  101c0f:	8b 40 04             	mov    0x4(%eax),%eax
  101c12:	89 44 24 04          	mov    %eax,0x4(%esp)
  101c16:	c7 04 24 b5 a6 10 00 	movl   $0x10a6b5,(%esp)
  101c1d:	e8 ae 7c 00 00       	call   1098d0 <cprintf>
	cprintf("  ebp  0x%08x\n", regs->ebp);
  101c22:	8b 45 08             	mov    0x8(%ebp),%eax
  101c25:	8b 40 08             	mov    0x8(%eax),%eax
  101c28:	89 44 24 04          	mov    %eax,0x4(%esp)
  101c2c:	c7 04 24 c4 a6 10 00 	movl   $0x10a6c4,(%esp)
  101c33:	e8 98 7c 00 00       	call   1098d0 <cprintf>
//	cprintf("  oesp 0x%08x\n", regs->oesp);	don't print - useless
	cprintf("  ebx  0x%08x\n", regs->ebx);
  101c38:	8b 45 08             	mov    0x8(%ebp),%eax
  101c3b:	8b 40 10             	mov    0x10(%eax),%eax
  101c3e:	89 44 24 04          	mov    %eax,0x4(%esp)
  101c42:	c7 04 24 d3 a6 10 00 	movl   $0x10a6d3,(%esp)
  101c49:	e8 82 7c 00 00       	call   1098d0 <cprintf>
	cprintf("  edx  0x%08x\n", regs->edx);
  101c4e:	8b 45 08             	mov    0x8(%ebp),%eax
  101c51:	8b 40 14             	mov    0x14(%eax),%eax
  101c54:	89 44 24 04          	mov    %eax,0x4(%esp)
  101c58:	c7 04 24 e2 a6 10 00 	movl   $0x10a6e2,(%esp)
  101c5f:	e8 6c 7c 00 00       	call   1098d0 <cprintf>
	cprintf("  ecx  0x%08x\n", regs->ecx);
  101c64:	8b 45 08             	mov    0x8(%ebp),%eax
  101c67:	8b 40 18             	mov    0x18(%eax),%eax
  101c6a:	89 44 24 04          	mov    %eax,0x4(%esp)
  101c6e:	c7 04 24 f1 a6 10 00 	movl   $0x10a6f1,(%esp)
  101c75:	e8 56 7c 00 00       	call   1098d0 <cprintf>
	cprintf("  eax  0x%08x\n", regs->eax);
  101c7a:	8b 45 08             	mov    0x8(%ebp),%eax
  101c7d:	8b 40 1c             	mov    0x1c(%eax),%eax
  101c80:	89 44 24 04          	mov    %eax,0x4(%esp)
  101c84:	c7 04 24 00 a7 10 00 	movl   $0x10a700,(%esp)
  101c8b:	e8 40 7c 00 00       	call   1098d0 <cprintf>
}
  101c90:	c9                   	leave  
  101c91:	c3                   	ret    

00101c92 <trap_print>:

void
trap_print(trapframe *tf)
{
  101c92:	55                   	push   %ebp
  101c93:	89 e5                	mov    %esp,%ebp
  101c95:	83 ec 18             	sub    $0x18,%esp
	cprintf("TRAP frame at %p\n", tf);
  101c98:	8b 45 08             	mov    0x8(%ebp),%eax
  101c9b:	89 44 24 04          	mov    %eax,0x4(%esp)
  101c9f:	c7 04 24 0f a7 10 00 	movl   $0x10a70f,(%esp)
  101ca6:	e8 25 7c 00 00       	call   1098d0 <cprintf>
	trap_print_regs(&tf->regs);
  101cab:	8b 45 08             	mov    0x8(%ebp),%eax
  101cae:	89 04 24             	mov    %eax,(%esp)
  101cb1:	e8 3b ff ff ff       	call   101bf1 <trap_print_regs>
	cprintf("  es   0x----%04x\n", tf->es);
  101cb6:	8b 45 08             	mov    0x8(%ebp),%eax
  101cb9:	0f b7 40 28          	movzwl 0x28(%eax),%eax
  101cbd:	0f b7 c0             	movzwl %ax,%eax
  101cc0:	89 44 24 04          	mov    %eax,0x4(%esp)
  101cc4:	c7 04 24 21 a7 10 00 	movl   $0x10a721,(%esp)
  101ccb:	e8 00 7c 00 00       	call   1098d0 <cprintf>
	cprintf("  ds   0x----%04x\n", tf->ds);
  101cd0:	8b 45 08             	mov    0x8(%ebp),%eax
  101cd3:	0f b7 40 2c          	movzwl 0x2c(%eax),%eax
  101cd7:	0f b7 c0             	movzwl %ax,%eax
  101cda:	89 44 24 04          	mov    %eax,0x4(%esp)
  101cde:	c7 04 24 34 a7 10 00 	movl   $0x10a734,(%esp)
  101ce5:	e8 e6 7b 00 00       	call   1098d0 <cprintf>
	cprintf("  trap 0x%08x %s\n", tf->trapno, trap_name(tf->trapno));
  101cea:	8b 45 08             	mov    0x8(%ebp),%eax
  101ced:	8b 40 30             	mov    0x30(%eax),%eax
  101cf0:	89 04 24             	mov    %eax,(%esp)
  101cf3:	e8 bb fe ff ff       	call   101bb3 <trap_name>
  101cf8:	8b 55 08             	mov    0x8(%ebp),%edx
  101cfb:	8b 52 30             	mov    0x30(%edx),%edx
  101cfe:	89 44 24 08          	mov    %eax,0x8(%esp)
  101d02:	89 54 24 04          	mov    %edx,0x4(%esp)
  101d06:	c7 04 24 47 a7 10 00 	movl   $0x10a747,(%esp)
  101d0d:	e8 be 7b 00 00       	call   1098d0 <cprintf>
	cprintf("  err  0x%08x\n", tf->err);
  101d12:	8b 45 08             	mov    0x8(%ebp),%eax
  101d15:	8b 40 34             	mov    0x34(%eax),%eax
  101d18:	89 44 24 04          	mov    %eax,0x4(%esp)
  101d1c:	c7 04 24 59 a7 10 00 	movl   $0x10a759,(%esp)
  101d23:	e8 a8 7b 00 00       	call   1098d0 <cprintf>
	cprintf("  eip  0x%08x\n", tf->eip);
  101d28:	8b 45 08             	mov    0x8(%ebp),%eax
  101d2b:	8b 40 38             	mov    0x38(%eax),%eax
  101d2e:	89 44 24 04          	mov    %eax,0x4(%esp)
  101d32:	c7 04 24 68 a7 10 00 	movl   $0x10a768,(%esp)
  101d39:	e8 92 7b 00 00       	call   1098d0 <cprintf>
	cprintf("  cs   0x----%04x\n", tf->cs);
  101d3e:	8b 45 08             	mov    0x8(%ebp),%eax
  101d41:	0f b7 40 3c          	movzwl 0x3c(%eax),%eax
  101d45:	0f b7 c0             	movzwl %ax,%eax
  101d48:	89 44 24 04          	mov    %eax,0x4(%esp)
  101d4c:	c7 04 24 77 a7 10 00 	movl   $0x10a777,(%esp)
  101d53:	e8 78 7b 00 00       	call   1098d0 <cprintf>
	cprintf("  flag 0x%08x\n", tf->eflags);
  101d58:	8b 45 08             	mov    0x8(%ebp),%eax
  101d5b:	8b 40 40             	mov    0x40(%eax),%eax
  101d5e:	89 44 24 04          	mov    %eax,0x4(%esp)
  101d62:	c7 04 24 8a a7 10 00 	movl   $0x10a78a,(%esp)
  101d69:	e8 62 7b 00 00       	call   1098d0 <cprintf>
	cprintf("  esp  0x%08x\n", tf->esp);
  101d6e:	8b 45 08             	mov    0x8(%ebp),%eax
  101d71:	8b 40 44             	mov    0x44(%eax),%eax
  101d74:	89 44 24 04          	mov    %eax,0x4(%esp)
  101d78:	c7 04 24 99 a7 10 00 	movl   $0x10a799,(%esp)
  101d7f:	e8 4c 7b 00 00       	call   1098d0 <cprintf>
	cprintf("  ss   0x----%04x\n", tf->ss);
  101d84:	8b 45 08             	mov    0x8(%ebp),%eax
  101d87:	0f b7 40 48          	movzwl 0x48(%eax),%eax
  101d8b:	0f b7 c0             	movzwl %ax,%eax
  101d8e:	89 44 24 04          	mov    %eax,0x4(%esp)
  101d92:	c7 04 24 a8 a7 10 00 	movl   $0x10a7a8,(%esp)
  101d99:	e8 32 7b 00 00       	call   1098d0 <cprintf>
}
  101d9e:	c9                   	leave  
  101d9f:	c3                   	ret    

00101da0 <trap>:

void gcc_noreturn
trap(trapframe *tf)
{
  101da0:	55                   	push   %ebp
  101da1:	89 e5                	mov    %esp,%ebp
  101da3:	53                   	push   %ebx
  101da4:	83 ec 24             	sub    $0x24,%esp
		// The user-level environment may have set the DF flag,
	// and some versions of GCC rely on DF being clear.
	asm volatile("cld" ::: "cc");
  101da7:	fc                   	cld    

	// If this is a page fault, first handle lazy copying automatically.
	// If that works, this call just calls trap_return() itself -
	// otherwise, it returns normally to blame the fault on the user.
	if (tf->trapno == T_PGFLT)
  101da8:	8b 45 08             	mov    0x8(%ebp),%eax
  101dab:	8b 40 30             	mov    0x30(%eax),%eax
  101dae:	83 f8 0e             	cmp    $0xe,%eax
  101db1:	75 0b                	jne    101dbe <trap+0x1e>
		pmap_pagefault(tf);
  101db3:	8b 45 08             	mov    0x8(%ebp),%eax
  101db6:	89 04 24             	mov    %eax,(%esp)
  101db9:	e8 e5 3d 00 00       	call   105ba3 <pmap_pagefault>

	// If this trap was anticipated, just use the designated handler.
	cpu *c = cpu_cur();
  101dbe:	e8 f5 fa ff ff       	call   1018b8 <cpu_cur>
  101dc3:	89 45 f4             	mov    %eax,-0xc(%ebp)
	if (c->recover)
  101dc6:	8b 45 f4             	mov    -0xc(%ebp),%eax
  101dc9:	8b 80 a0 00 00 00    	mov    0xa0(%eax),%eax
  101dcf:	85 c0                	test   %eax,%eax
  101dd1:	74 1e                	je     101df1 <trap+0x51>
		c->recover(tf, c->recoverdata);
  101dd3:	8b 45 f4             	mov    -0xc(%ebp),%eax
  101dd6:	8b 80 a0 00 00 00    	mov    0xa0(%eax),%eax
  101ddc:	8b 55 f4             	mov    -0xc(%ebp),%edx
  101ddf:	8b 92 a4 00 00 00    	mov    0xa4(%edx),%edx
  101de5:	89 54 24 04          	mov    %edx,0x4(%esp)
  101de9:	8b 55 08             	mov    0x8(%ebp),%edx
  101dec:	89 14 24             	mov    %edx,(%esp)
  101def:	ff d0                	call   *%eax

	proc *p = proc_cur();
  101df1:	e8 c2 fa ff ff       	call   1018b8 <cpu_cur>
  101df6:	8b 80 b4 00 00 00    	mov    0xb4(%eax),%eax
  101dfc:	89 45 f0             	mov    %eax,-0x10(%ebp)
	switch (tf->trapno) {
  101dff:	8b 45 08             	mov    0x8(%ebp),%eax
  101e02:	8b 40 30             	mov    0x30(%eax),%eax
  101e05:	83 e8 03             	sub    $0x3,%eax
  101e08:	83 f8 2f             	cmp    $0x2f,%eax
  101e0b:	0f 87 3c 01 00 00    	ja     101f4d <trap+0x1ad>
  101e11:	8b 04 85 30 a8 10 00 	mov    0x10a830(,%eax,4),%eax
  101e18:	ff e0                	jmp    *%eax
	case T_SYSCALL:
		assert(tf->cs & 3);	// syscalls only come from user space
  101e1a:	8b 45 08             	mov    0x8(%ebp),%eax
  101e1d:	0f b7 40 3c          	movzwl 0x3c(%eax),%eax
  101e21:	0f b7 c0             	movzwl %ax,%eax
  101e24:	83 e0 03             	and    $0x3,%eax
  101e27:	85 c0                	test   %eax,%eax
  101e29:	75 24                	jne    101e4f <trap+0xaf>
  101e2b:	c7 44 24 0c bb a7 10 	movl   $0x10a7bb,0xc(%esp)
  101e32:	00 
  101e33:	c7 44 24 08 56 a6 10 	movl   $0x10a656,0x8(%esp)
  101e3a:	00 
  101e3b:	c7 44 24 04 99 00 00 	movl   $0x99,0x4(%esp)
  101e42:	00 
  101e43:	c7 04 24 c6 a7 10 00 	movl   $0x10a7c6,(%esp)
  101e4a:	e8 e9 ea ff ff       	call   100938 <debug_panic>
		syscall(tf);
  101e4f:	8b 45 08             	mov    0x8(%ebp),%eax
  101e52:	89 04 24             	mov    %eax,(%esp)
  101e55:	e8 2c 29 00 00       	call   104786 <syscall>
		break;
  101e5a:	e9 ee 00 00 00       	jmp    101f4d <trap+0x1ad>
	case T_BRKPT:
		break;// other traps entered via explicit INT instructions
	case T_OFLOW:
		assert(tf->cs & 3);	// only allowed from user space
  101e5f:	8b 45 08             	mov    0x8(%ebp),%eax
  101e62:	0f b7 40 3c          	movzwl 0x3c(%eax),%eax
  101e66:	0f b7 c0             	movzwl %ax,%eax
  101e69:	83 e0 03             	and    $0x3,%eax
  101e6c:	85 c0                	test   %eax,%eax
  101e6e:	75 24                	jne    101e94 <trap+0xf4>
  101e70:	c7 44 24 0c bb a7 10 	movl   $0x10a7bb,0xc(%esp)
  101e77:	00 
  101e78:	c7 44 24 08 56 a6 10 	movl   $0x10a656,0x8(%esp)
  101e7f:	00 
  101e80:	c7 44 24 04 9f 00 00 	movl   $0x9f,0x4(%esp)
  101e87:	00 
  101e88:	c7 04 24 c6 a7 10 00 	movl   $0x10a7c6,(%esp)
  101e8f:	e8 a4 ea ff ff       	call   100938 <debug_panic>
		proc_ret(tf, 1);	// reflect trap to parent process
  101e94:	c7 44 24 04 01 00 00 	movl   $0x1,0x4(%esp)
  101e9b:	00 
  101e9c:	8b 45 08             	mov    0x8(%ebp),%eax
  101e9f:	89 04 24             	mov    %eax,(%esp)
  101ea2:	e8 da 16 00 00       	call   103581 <proc_ret>
		break;
	case T_LTIMER: ;
		lapic_eoi();
  101ea7:	e8 8c 6f 00 00       	call   108e38 <lapic_eoi>
		if (tf->cs & 3)	// If in user mode, context switch
  101eac:	8b 45 08             	mov    0x8(%ebp),%eax
  101eaf:	0f b7 40 3c          	movzwl 0x3c(%eax),%eax
  101eb3:	0f b7 c0             	movzwl %ax,%eax
  101eb6:	83 e0 03             	and    $0x3,%eax
  101eb9:	85 c0                	test   %eax,%eax
  101ebb:	74 0b                	je     101ec8 <trap+0x128>
			proc_yield(tf);
  101ebd:	8b 45 08             	mov    0x8(%ebp),%eax
  101ec0:	89 04 24             	mov    %eax,(%esp)
  101ec3:	e8 79 16 00 00       	call   103541 <proc_yield>
		trap_return(tf);	// Otherwise, stay in idle loop
  101ec8:	8b 45 08             	mov    0x8(%ebp),%eax
  101ecb:	89 04 24             	mov    %eax,(%esp)
  101ece:	e8 2d e2 00 00       	call   110100 <trap_return>
	case T_LERROR:
		lapic_errintr();
  101ed3:	e8 85 6f 00 00       	call   108e5d <lapic_errintr>
		trap_return(tf);
  101ed8:	8b 45 08             	mov    0x8(%ebp),%eax
  101edb:	89 04 24             	mov    %eax,(%esp)
  101ede:	e8 1d e2 00 00       	call   110100 <trap_return>
	case T_IRQ0 + IRQ_KBD:
		//cprintf("CPU%d: KBD\n", c->id);
		kbd_intr();
  101ee3:	e8 2a 68 00 00       	call   108712 <kbd_intr>
		lapic_eoi();
  101ee8:	e8 4b 6f 00 00       	call   108e38 <lapic_eoi>
		trap_return(tf);
  101eed:	8b 45 08             	mov    0x8(%ebp),%eax
  101ef0:	89 04 24             	mov    %eax,(%esp)
  101ef3:	e8 08 e2 00 00       	call   110100 <trap_return>
	case T_IRQ0 + IRQ_SERIAL:
		serial_intr();
  101ef8:	e8 0d 69 00 00       	call   10880a <serial_intr>
		lapic_eoi();
  101efd:	e8 36 6f 00 00       	call   108e38 <lapic_eoi>
		trap_return(tf);
  101f02:	8b 45 08             	mov    0x8(%ebp),%eax
  101f05:	89 04 24             	mov    %eax,(%esp)
  101f08:	e8 f3 e1 00 00       	call   110100 <trap_return>
	case T_IRQ0 + IRQ_SPURIOUS:
		cprintf("cpu%d: spurious interrupt at %x:%x\n",
			c->id, tf->cs, tf->eip);
  101f0d:	8b 45 08             	mov    0x8(%ebp),%eax
	case T_IRQ0 + IRQ_SERIAL:
		serial_intr();
		lapic_eoi();
		trap_return(tf);
	case T_IRQ0 + IRQ_SPURIOUS:
		cprintf("cpu%d: spurious interrupt at %x:%x\n",
  101f10:	8b 48 38             	mov    0x38(%eax),%ecx
			c->id, tf->cs, tf->eip);
  101f13:	8b 45 08             	mov    0x8(%ebp),%eax
  101f16:	0f b7 40 3c          	movzwl 0x3c(%eax),%eax
	case T_IRQ0 + IRQ_SERIAL:
		serial_intr();
		lapic_eoi();
		trap_return(tf);
	case T_IRQ0 + IRQ_SPURIOUS:
		cprintf("cpu%d: spurious interrupt at %x:%x\n",
  101f1a:	0f b7 d0             	movzwl %ax,%edx
			c->id, tf->cs, tf->eip);
  101f1d:	8b 45 f4             	mov    -0xc(%ebp),%eax
  101f20:	0f b6 80 ac 00 00 00 	movzbl 0xac(%eax),%eax
	case T_IRQ0 + IRQ_SERIAL:
		serial_intr();
		lapic_eoi();
		trap_return(tf);
	case T_IRQ0 + IRQ_SPURIOUS:
		cprintf("cpu%d: spurious interrupt at %x:%x\n",
  101f27:	0f b6 c0             	movzbl %al,%eax
  101f2a:	89 4c 24 0c          	mov    %ecx,0xc(%esp)
  101f2e:	89 54 24 08          	mov    %edx,0x8(%esp)
  101f32:	89 44 24 04          	mov    %eax,0x4(%esp)
  101f36:	c7 04 24 d4 a7 10 00 	movl   $0x10a7d4,(%esp)
  101f3d:	e8 8e 79 00 00       	call   1098d0 <cprintf>
			c->id, tf->cs, tf->eip);
		trap_return(tf); // Note: no EOI (see Local APIC manual)
  101f42:	8b 45 08             	mov    0x8(%ebp),%eax
  101f45:	89 04 24             	mov    %eax,(%esp)
  101f48:	e8 b3 e1 00 00       	call   110100 <trap_return>
		break;
	}
	if (tf->cs & 3) {		// Unhandled trap from user mode
  101f4d:	8b 45 08             	mov    0x8(%ebp),%eax
  101f50:	0f b7 40 3c          	movzwl 0x3c(%eax),%eax
  101f54:	0f b7 c0             	movzwl %ax,%eax
  101f57:	83 e0 03             	and    $0x3,%eax
  101f5a:	85 c0                	test   %eax,%eax
  101f5c:	74 4b                	je     101fa9 <trap+0x209>
		cprintf("trap in proc %x, reflecting to proc %x\n",
			proc_cur(), proc_cur()->parent);
  101f5e:	e8 55 f9 ff ff       	call   1018b8 <cpu_cur>
  101f63:	8b 80 b4 00 00 00    	mov    0xb4(%eax),%eax
			c->id, tf->cs, tf->eip);
		trap_return(tf); // Note: no EOI (see Local APIC manual)
		break;
	}
	if (tf->cs & 3) {		// Unhandled trap from user mode
		cprintf("trap in proc %x, reflecting to proc %x\n",
  101f69:	8b 58 38             	mov    0x38(%eax),%ebx
			proc_cur(), proc_cur()->parent);
  101f6c:	e8 47 f9 ff ff       	call   1018b8 <cpu_cur>
			c->id, tf->cs, tf->eip);
		trap_return(tf); // Note: no EOI (see Local APIC manual)
		break;
	}
	if (tf->cs & 3) {		// Unhandled trap from user mode
		cprintf("trap in proc %x, reflecting to proc %x\n",
  101f71:	8b 80 b4 00 00 00    	mov    0xb4(%eax),%eax
  101f77:	89 5c 24 08          	mov    %ebx,0x8(%esp)
  101f7b:	89 44 24 04          	mov    %eax,0x4(%esp)
  101f7f:	c7 04 24 f8 a7 10 00 	movl   $0x10a7f8,(%esp)
  101f86:	e8 45 79 00 00       	call   1098d0 <cprintf>
			proc_cur(), proc_cur()->parent);
		trap_print(tf);
  101f8b:	8b 45 08             	mov    0x8(%ebp),%eax
  101f8e:	89 04 24             	mov    %eax,(%esp)
  101f91:	e8 fc fc ff ff       	call   101c92 <trap_print>
		proc_ret(tf, -1);	// Reflect trap to parent process
  101f96:	c7 44 24 04 ff ff ff 	movl   $0xffffffff,0x4(%esp)
  101f9d:	ff 
  101f9e:	8b 45 08             	mov    0x8(%ebp),%eax
  101fa1:	89 04 24             	mov    %eax,(%esp)
  101fa4:	e8 d8 15 00 00       	call   103581 <proc_ret>
	}

	// If we panic while holding the console lock,
	// release it so we don't get into a recursive panic that way.
	if (spinlock_holding(&cons_lock))
  101fa9:	c7 04 24 00 8f 18 00 	movl   $0x188f00,(%esp)
  101fb0:	e8 0b 0b 00 00       	call   102ac0 <spinlock_holding>
  101fb5:	85 c0                	test   %eax,%eax
  101fb7:	74 0c                	je     101fc5 <trap+0x225>
		spinlock_release(&cons_lock);
  101fb9:	c7 04 24 00 8f 18 00 	movl   $0x188f00,(%esp)
  101fc0:	e8 a1 0a 00 00       	call   102a66 <spinlock_release>
	trap_print(tf);
  101fc5:	8b 45 08             	mov    0x8(%ebp),%eax
  101fc8:	89 04 24             	mov    %eax,(%esp)
  101fcb:	e8 c2 fc ff ff       	call   101c92 <trap_print>
	panic("unhandled trap");
  101fd0:	c7 44 24 08 20 a8 10 	movl   $0x10a820,0x8(%esp)
  101fd7:	00 
  101fd8:	c7 44 24 04 c5 00 00 	movl   $0xc5,0x4(%esp)
  101fdf:	00 
  101fe0:	c7 04 24 c6 a7 10 00 	movl   $0x10a7c6,(%esp)
  101fe7:	e8 4c e9 ff ff       	call   100938 <debug_panic>

00101fec <trap_check_recover>:

// Helper function for trap_check_recover(), below:
// handles "anticipated" traps by simply resuming at a new EIP.
static void gcc_noreturn
trap_check_recover(trapframe *tf, void *recoverdata)
{
  101fec:	55                   	push   %ebp
  101fed:	89 e5                	mov    %esp,%ebp
  101fef:	83 ec 28             	sub    $0x28,%esp
	trap_check_args *args = recoverdata;
  101ff2:	8b 45 0c             	mov    0xc(%ebp),%eax
  101ff5:	89 45 f4             	mov    %eax,-0xc(%ebp)
	tf->eip = (uint32_t) args->reip;	// Use recovery EIP on return
  101ff8:	8b 45 f4             	mov    -0xc(%ebp),%eax
  101ffb:	8b 00                	mov    (%eax),%eax
  101ffd:	89 c2                	mov    %eax,%edx
  101fff:	8b 45 08             	mov    0x8(%ebp),%eax
  102002:	89 50 38             	mov    %edx,0x38(%eax)
	args->trapno = tf->trapno;		// Return trap number
  102005:	8b 45 08             	mov    0x8(%ebp),%eax
  102008:	8b 40 30             	mov    0x30(%eax),%eax
  10200b:	89 c2                	mov    %eax,%edx
  10200d:	8b 45 f4             	mov    -0xc(%ebp),%eax
  102010:	89 50 04             	mov    %edx,0x4(%eax)
	trap_return(tf);
  102013:	8b 45 08             	mov    0x8(%ebp),%eax
  102016:	89 04 24             	mov    %eax,(%esp)
  102019:	e8 e2 e0 00 00       	call   110100 <trap_return>

0010201e <trap_check_kernel>:

// Check for correct handling of traps from kernel mode.
// Called on the boot CPU after trap_init() and trap_setup().
void
trap_check_kernel(void)
{
  10201e:	55                   	push   %ebp
  10201f:	89 e5                	mov    %esp,%ebp
  102021:	53                   	push   %ebx
  102022:	83 ec 24             	sub    $0x24,%esp

static gcc_inline uint16_t
read_cs(void)
{
        uint16_t cs;
        __asm __volatile("movw %%cs,%0" : "=rm" (cs));
  102025:	66 8c cb             	mov    %cs,%bx
  102028:	66 89 5d f2          	mov    %bx,-0xe(%ebp)
        return cs;
  10202c:	0f b7 45 f2          	movzwl -0xe(%ebp),%eax
	assert((read_cs() & 3) == 0);	// better be in kernel mode!
  102030:	0f b7 c0             	movzwl %ax,%eax
  102033:	83 e0 03             	and    $0x3,%eax
  102036:	85 c0                	test   %eax,%eax
  102038:	74 24                	je     10205e <trap_check_kernel+0x40>
  10203a:	c7 44 24 0c f0 a8 10 	movl   $0x10a8f0,0xc(%esp)
  102041:	00 
  102042:	c7 44 24 08 56 a6 10 	movl   $0x10a656,0x8(%esp)
  102049:	00 
  10204a:	c7 44 24 04 d9 00 00 	movl   $0xd9,0x4(%esp)
  102051:	00 
  102052:	c7 04 24 c6 a7 10 00 	movl   $0x10a7c6,(%esp)
  102059:	e8 da e8 ff ff       	call   100938 <debug_panic>

	cpu *c = cpu_cur();
  10205e:	e8 55 f8 ff ff       	call   1018b8 <cpu_cur>
  102063:	89 45 f4             	mov    %eax,-0xc(%ebp)
	c->recover = trap_check_recover;
  102066:	8b 45 f4             	mov    -0xc(%ebp),%eax
  102069:	c7 80 a0 00 00 00 ec 	movl   $0x101fec,0xa0(%eax)
  102070:	1f 10 00 
	trap_check(&c->recoverdata);
  102073:	8b 45 f4             	mov    -0xc(%ebp),%eax
  102076:	05 a4 00 00 00       	add    $0xa4,%eax
  10207b:	89 04 24             	mov    %eax,(%esp)
  10207e:	e8 a3 00 00 00       	call   102126 <trap_check>
	c->recover = NULL;	// No more mr. nice-guy; traps are real again
  102083:	8b 45 f4             	mov    -0xc(%ebp),%eax
  102086:	c7 80 a0 00 00 00 00 	movl   $0x0,0xa0(%eax)
  10208d:	00 00 00 

	cprintf("trap_check_kernel() succeeded!\n");
  102090:	c7 04 24 08 a9 10 00 	movl   $0x10a908,(%esp)
  102097:	e8 34 78 00 00       	call   1098d0 <cprintf>
}
  10209c:	83 c4 24             	add    $0x24,%esp
  10209f:	5b                   	pop    %ebx
  1020a0:	5d                   	pop    %ebp
  1020a1:	c3                   	ret    

001020a2 <trap_check_user>:
// Called from user() in kern/init.c, only in lab 1.
// We assume the "current cpu" is always the boot cpu;
// this true only because lab 1 doesn't start any other CPUs.
void
trap_check_user(void)
{
  1020a2:	55                   	push   %ebp
  1020a3:	89 e5                	mov    %esp,%ebp
  1020a5:	53                   	push   %ebx
  1020a6:	83 ec 24             	sub    $0x24,%esp

static gcc_inline uint16_t
read_cs(void)
{
        uint16_t cs;
        __asm __volatile("movw %%cs,%0" : "=rm" (cs));
  1020a9:	66 8c cb             	mov    %cs,%bx
  1020ac:	66 89 5d f2          	mov    %bx,-0xe(%ebp)
        return cs;
  1020b0:	0f b7 45 f2          	movzwl -0xe(%ebp),%eax
	assert((read_cs() & 3) == 3);	// better be in user mode!
  1020b4:	0f b7 c0             	movzwl %ax,%eax
  1020b7:	83 e0 03             	and    $0x3,%eax
  1020ba:	83 f8 03             	cmp    $0x3,%eax
  1020bd:	74 24                	je     1020e3 <trap_check_user+0x41>
  1020bf:	c7 44 24 0c 28 a9 10 	movl   $0x10a928,0xc(%esp)
  1020c6:	00 
  1020c7:	c7 44 24 08 56 a6 10 	movl   $0x10a656,0x8(%esp)
  1020ce:	00 
  1020cf:	c7 44 24 04 ea 00 00 	movl   $0xea,0x4(%esp)
  1020d6:	00 
  1020d7:	c7 04 24 c6 a7 10 00 	movl   $0x10a7c6,(%esp)
  1020de:	e8 55 e8 ff ff       	call   100938 <debug_panic>

	cpu *c = &cpu_boot;	// cpu_cur doesn't work from user mode!
  1020e3:	c7 45 f4 00 f0 10 00 	movl   $0x10f000,-0xc(%ebp)
	c->recover = trap_check_recover;
  1020ea:	8b 45 f4             	mov    -0xc(%ebp),%eax
  1020ed:	c7 80 a0 00 00 00 ec 	movl   $0x101fec,0xa0(%eax)
  1020f4:	1f 10 00 
	trap_check(&c->recoverdata);
  1020f7:	8b 45 f4             	mov    -0xc(%ebp),%eax
  1020fa:	05 a4 00 00 00       	add    $0xa4,%eax
  1020ff:	89 04 24             	mov    %eax,(%esp)
  102102:	e8 1f 00 00 00       	call   102126 <trap_check>
	c->recover = NULL;	// No more mr. nice-guy; traps are real again
  102107:	8b 45 f4             	mov    -0xc(%ebp),%eax
  10210a:	c7 80 a0 00 00 00 00 	movl   $0x0,0xa0(%eax)
  102111:	00 00 00 

	cprintf("trap_check_user() succeeded!\n");
  102114:	c7 04 24 3d a9 10 00 	movl   $0x10a93d,(%esp)
  10211b:	e8 b0 77 00 00       	call   1098d0 <cprintf>
}
  102120:	83 c4 24             	add    $0x24,%esp
  102123:	5b                   	pop    %ebx
  102124:	5d                   	pop    %ebp
  102125:	c3                   	ret    

00102126 <trap_check>:
void after_priv();

// Multi-purpose trap checking function.
void
trap_check(void **argsp)
{
  102126:	55                   	push   %ebp
  102127:	89 e5                	mov    %esp,%ebp
  102129:	57                   	push   %edi
  10212a:	56                   	push   %esi
  10212b:	53                   	push   %ebx
  10212c:	83 ec 3c             	sub    $0x3c,%esp
	volatile int cookie = 0xfeedface;
  10212f:	c7 45 e0 ce fa ed fe 	movl   $0xfeedface,-0x20(%ebp)
	volatile trap_check_args args;
	*argsp = (void*)&args;	// provide args needed for trap recovery
  102136:	8b 45 08             	mov    0x8(%ebp),%eax
  102139:	8d 55 d8             	lea    -0x28(%ebp),%edx
  10213c:	89 10                	mov    %edx,(%eax)

	// Try a divide by zero trap.
	// Be careful when using && to take the address of a label:
	// some versions of GCC (4.4.2 at least) will incorrectly try to
	// eliminate code it thinks is _only_ reachable via such a pointer.
	args.reip = after_div0;
  10213e:	c7 45 d8 4c 21 10 00 	movl   $0x10214c,-0x28(%ebp)
	asm volatile("div %0,%0; after_div0:" : : "r" (0));
  102145:	b8 00 00 00 00       	mov    $0x0,%eax
  10214a:	f7 f0                	div    %eax

0010214c <after_div0>:
	assert(args.trapno == T_DIVIDE);
  10214c:	8b 45 dc             	mov    -0x24(%ebp),%eax
  10214f:	85 c0                	test   %eax,%eax
  102151:	74 24                	je     102177 <after_div0+0x2b>
  102153:	c7 44 24 0c 5b a9 10 	movl   $0x10a95b,0xc(%esp)
  10215a:	00 
  10215b:	c7 44 24 08 56 a6 10 	movl   $0x10a656,0x8(%esp)
  102162:	00 
  102163:	c7 44 24 04 0a 01 00 	movl   $0x10a,0x4(%esp)
  10216a:	00 
  10216b:	c7 04 24 c6 a7 10 00 	movl   $0x10a7c6,(%esp)
  102172:	e8 c1 e7 ff ff       	call   100938 <debug_panic>

	// Make sure we got our correct stack back with us.
	// The asm ensures gcc uses ebp/esp to get the cookie.
	asm volatile("" : : : "eax","ebx","ecx","edx","esi","edi");
	assert(cookie == 0xfeedface);
  102177:	8b 45 e0             	mov    -0x20(%ebp),%eax
  10217a:	3d ce fa ed fe       	cmp    $0xfeedface,%eax
  10217f:	74 24                	je     1021a5 <after_div0+0x59>
  102181:	c7 44 24 0c 73 a9 10 	movl   $0x10a973,0xc(%esp)
  102188:	00 
  102189:	c7 44 24 08 56 a6 10 	movl   $0x10a656,0x8(%esp)
  102190:	00 
  102191:	c7 44 24 04 0f 01 00 	movl   $0x10f,0x4(%esp)
  102198:	00 
  102199:	c7 04 24 c6 a7 10 00 	movl   $0x10a7c6,(%esp)
  1021a0:	e8 93 e7 ff ff       	call   100938 <debug_panic>

	// Breakpoint trap
	args.reip = after_breakpoint;
  1021a5:	c7 45 d8 ad 21 10 00 	movl   $0x1021ad,-0x28(%ebp)
	asm volatile("int3; after_breakpoint:");
  1021ac:	cc                   	int3   

001021ad <after_breakpoint>:
	assert(args.trapno == T_BRKPT);
  1021ad:	8b 45 dc             	mov    -0x24(%ebp),%eax
  1021b0:	83 f8 03             	cmp    $0x3,%eax
  1021b3:	74 24                	je     1021d9 <after_breakpoint+0x2c>
  1021b5:	c7 44 24 0c 88 a9 10 	movl   $0x10a988,0xc(%esp)
  1021bc:	00 
  1021bd:	c7 44 24 08 56 a6 10 	movl   $0x10a656,0x8(%esp)
  1021c4:	00 
  1021c5:	c7 44 24 04 14 01 00 	movl   $0x114,0x4(%esp)
  1021cc:	00 
  1021cd:	c7 04 24 c6 a7 10 00 	movl   $0x10a7c6,(%esp)
  1021d4:	e8 5f e7 ff ff       	call   100938 <debug_panic>

	// Overflow trap
	args.reip = after_overflow;
  1021d9:	c7 45 d8 e8 21 10 00 	movl   $0x1021e8,-0x28(%ebp)
	asm volatile("addl %0,%0; into; after_overflow:" : : "r" (0x70000000));
  1021e0:	b8 00 00 00 70       	mov    $0x70000000,%eax
  1021e5:	01 c0                	add    %eax,%eax
  1021e7:	ce                   	into   

001021e8 <after_overflow>:
	assert(args.trapno == T_OFLOW);
  1021e8:	8b 45 dc             	mov    -0x24(%ebp),%eax
  1021eb:	83 f8 04             	cmp    $0x4,%eax
  1021ee:	74 24                	je     102214 <after_overflow+0x2c>
  1021f0:	c7 44 24 0c 9f a9 10 	movl   $0x10a99f,0xc(%esp)
  1021f7:	00 
  1021f8:	c7 44 24 08 56 a6 10 	movl   $0x10a656,0x8(%esp)
  1021ff:	00 
  102200:	c7 44 24 04 19 01 00 	movl   $0x119,0x4(%esp)
  102207:	00 
  102208:	c7 04 24 c6 a7 10 00 	movl   $0x10a7c6,(%esp)
  10220f:	e8 24 e7 ff ff       	call   100938 <debug_panic>

	// Bounds trap
	args.reip = after_bound;
  102214:	c7 45 d8 31 22 10 00 	movl   $0x102231,-0x28(%ebp)
	int bounds[2] = { 1, 3 };
  10221b:	c7 45 d0 01 00 00 00 	movl   $0x1,-0x30(%ebp)
  102222:	c7 45 d4 03 00 00 00 	movl   $0x3,-0x2c(%ebp)
	asm volatile("boundl %0,%1; after_bound:" : : "r" (0), "m" (bounds[0]));
  102229:	b8 00 00 00 00       	mov    $0x0,%eax
  10222e:	62 45 d0             	bound  %eax,-0x30(%ebp)

00102231 <after_bound>:
	assert(args.trapno == T_BOUND);
  102231:	8b 45 dc             	mov    -0x24(%ebp),%eax
  102234:	83 f8 05             	cmp    $0x5,%eax
  102237:	74 24                	je     10225d <after_bound+0x2c>
  102239:	c7 44 24 0c b6 a9 10 	movl   $0x10a9b6,0xc(%esp)
  102240:	00 
  102241:	c7 44 24 08 56 a6 10 	movl   $0x10a656,0x8(%esp)
  102248:	00 
  102249:	c7 44 24 04 1f 01 00 	movl   $0x11f,0x4(%esp)
  102250:	00 
  102251:	c7 04 24 c6 a7 10 00 	movl   $0x10a7c6,(%esp)
  102258:	e8 db e6 ff ff       	call   100938 <debug_panic>

	// Illegal instruction trap
	args.reip = after_illegal;
  10225d:	c7 45 d8 66 22 10 00 	movl   $0x102266,-0x28(%ebp)
	asm volatile("ud2; after_illegal:");	// guaranteed to be undefined
  102264:	0f 0b                	ud2    

00102266 <after_illegal>:
	assert(args.trapno == T_ILLOP);
  102266:	8b 45 dc             	mov    -0x24(%ebp),%eax
  102269:	83 f8 06             	cmp    $0x6,%eax
  10226c:	74 24                	je     102292 <after_illegal+0x2c>
  10226e:	c7 44 24 0c cd a9 10 	movl   $0x10a9cd,0xc(%esp)
  102275:	00 
  102276:	c7 44 24 08 56 a6 10 	movl   $0x10a656,0x8(%esp)
  10227d:	00 
  10227e:	c7 44 24 04 24 01 00 	movl   $0x124,0x4(%esp)
  102285:	00 
  102286:	c7 04 24 c6 a7 10 00 	movl   $0x10a7c6,(%esp)
  10228d:	e8 a6 e6 ff ff       	call   100938 <debug_panic>

	// General protection fault due to invalid segment load
	args.reip = after_gpfault;
  102292:	c7 45 d8 a0 22 10 00 	movl   $0x1022a0,-0x28(%ebp)
	asm volatile("movl %0,%%fs; after_gpfault:" : : "r" (-1));
  102299:	b8 ff ff ff ff       	mov    $0xffffffff,%eax
  10229e:	8e e0                	mov    %eax,%fs

001022a0 <after_gpfault>:
	assert(args.trapno == T_GPFLT);
  1022a0:	8b 45 dc             	mov    -0x24(%ebp),%eax
  1022a3:	83 f8 0d             	cmp    $0xd,%eax
  1022a6:	74 24                	je     1022cc <after_gpfault+0x2c>
  1022a8:	c7 44 24 0c e4 a9 10 	movl   $0x10a9e4,0xc(%esp)
  1022af:	00 
  1022b0:	c7 44 24 08 56 a6 10 	movl   $0x10a656,0x8(%esp)
  1022b7:	00 
  1022b8:	c7 44 24 04 29 01 00 	movl   $0x129,0x4(%esp)
  1022bf:	00 
  1022c0:	c7 04 24 c6 a7 10 00 	movl   $0x10a7c6,(%esp)
  1022c7:	e8 6c e6 ff ff       	call   100938 <debug_panic>

static gcc_inline uint16_t
read_cs(void)
{
        uint16_t cs;
        __asm __volatile("movw %%cs,%0" : "=rm" (cs));
  1022cc:	66 8c cb             	mov    %cs,%bx
  1022cf:	66 89 5d e6          	mov    %bx,-0x1a(%ebp)
        return cs;
  1022d3:	0f b7 45 e6          	movzwl -0x1a(%ebp),%eax

	// General protection fault due to privilege violation
	if (read_cs() & 3) {
  1022d7:	0f b7 c0             	movzwl %ax,%eax
  1022da:	83 e0 03             	and    $0x3,%eax
  1022dd:	85 c0                	test   %eax,%eax
  1022df:	74 3a                	je     10231b <after_priv+0x2c>
		args.reip = after_priv;
  1022e1:	c7 45 d8 ef 22 10 00 	movl   $0x1022ef,-0x28(%ebp)
		asm volatile("lidt %0; after_priv:" : : "m" (idt_pd));
  1022e8:	0f 01 1d 04 00 11 00 	lidtl  0x110004

001022ef <after_priv>:
		assert(args.trapno == T_GPFLT);
  1022ef:	8b 45 dc             	mov    -0x24(%ebp),%eax
  1022f2:	83 f8 0d             	cmp    $0xd,%eax
  1022f5:	74 24                	je     10231b <after_priv+0x2c>
  1022f7:	c7 44 24 0c e4 a9 10 	movl   $0x10a9e4,0xc(%esp)
  1022fe:	00 
  1022ff:	c7 44 24 08 56 a6 10 	movl   $0x10a656,0x8(%esp)
  102306:	00 
  102307:	c7 44 24 04 2f 01 00 	movl   $0x12f,0x4(%esp)
  10230e:	00 
  10230f:	c7 04 24 c6 a7 10 00 	movl   $0x10a7c6,(%esp)
  102316:	e8 1d e6 ff ff       	call   100938 <debug_panic>
	}

	// Make sure our stack cookie is still with us
	assert(cookie == 0xfeedface);
  10231b:	8b 45 e0             	mov    -0x20(%ebp),%eax
  10231e:	3d ce fa ed fe       	cmp    $0xfeedface,%eax
  102323:	74 24                	je     102349 <after_priv+0x5a>
  102325:	c7 44 24 0c 73 a9 10 	movl   $0x10a973,0xc(%esp)
  10232c:	00 
  10232d:	c7 44 24 08 56 a6 10 	movl   $0x10a656,0x8(%esp)
  102334:	00 
  102335:	c7 44 24 04 33 01 00 	movl   $0x133,0x4(%esp)
  10233c:	00 
  10233d:	c7 04 24 c6 a7 10 00 	movl   $0x10a7c6,(%esp)
  102344:	e8 ef e5 ff ff       	call   100938 <debug_panic>

	*argsp = NULL;	// recovery mechanism not needed anymore
  102349:	8b 45 08             	mov    0x8(%ebp),%eax
  10234c:	c7 00 00 00 00 00    	movl   $0x0,(%eax)
}
  102352:	83 c4 3c             	add    $0x3c,%esp
  102355:	5b                   	pop    %ebx
  102356:	5e                   	pop    %esi
  102357:	5f                   	pop    %edi
  102358:	5d                   	pop    %ebp
  102359:	c3                   	ret    
  10235a:	66 90                	xchg   %ax,%ax

0010235c <vector0>:
.text

/*
 * Lab 1: Your code here for generating entry points for the different traps.
 */
TRAPHANDLER_NOEC(vector0, 0)
  10235c:	6a 00                	push   $0x0
  10235e:	6a 00                	push   $0x0
  102360:	e9 77 dd 00 00       	jmp    1100dc <_alltraps>
  102365:	90                   	nop

00102366 <vector1>:
TRAPHANDLER_NOEC(vector1, 1)
  102366:	6a 00                	push   $0x0
  102368:	6a 01                	push   $0x1
  10236a:	e9 6d dd 00 00       	jmp    1100dc <_alltraps>
  10236f:	90                   	nop

00102370 <vector2>:
TRAPHANDLER_NOEC(vector2,2 )
  102370:	6a 00                	push   $0x0
  102372:	6a 02                	push   $0x2
  102374:	e9 63 dd 00 00       	jmp    1100dc <_alltraps>
  102379:	90                   	nop

0010237a <vector3>:
TRAPHANDLER_NOEC(vector3,3 )
  10237a:	6a 00                	push   $0x0
  10237c:	6a 03                	push   $0x3
  10237e:	e9 59 dd 00 00       	jmp    1100dc <_alltraps>
  102383:	90                   	nop

00102384 <vector4>:
TRAPHANDLER_NOEC(vector4,4 )
  102384:	6a 00                	push   $0x0
  102386:	6a 04                	push   $0x4
  102388:	e9 4f dd 00 00       	jmp    1100dc <_alltraps>
  10238d:	90                   	nop

0010238e <vector5>:
TRAPHANDLER_NOEC(vector5,5 )
  10238e:	6a 00                	push   $0x0
  102390:	6a 05                	push   $0x5
  102392:	e9 45 dd 00 00       	jmp    1100dc <_alltraps>
  102397:	90                   	nop

00102398 <vector6>:
TRAPHANDLER_NOEC(vector6,6 )
  102398:	6a 00                	push   $0x0
  10239a:	6a 06                	push   $0x6
  10239c:	e9 3b dd 00 00       	jmp    1100dc <_alltraps>
  1023a1:	90                   	nop

001023a2 <vector7>:
TRAPHANDLER_NOEC(vector7,7 )
  1023a2:	6a 00                	push   $0x0
  1023a4:	6a 07                	push   $0x7
  1023a6:	e9 31 dd 00 00       	jmp    1100dc <_alltraps>
  1023ab:	90                   	nop

001023ac <vector8>:
TRAPHANDLER(vector8,8 )
  1023ac:	6a 08                	push   $0x8
  1023ae:	e9 29 dd 00 00       	jmp    1100dc <_alltraps>
  1023b3:	90                   	nop

001023b4 <vector9>:
TRAPHANDLER_NOEC(vector9,9 )
  1023b4:	6a 00                	push   $0x0
  1023b6:	6a 09                	push   $0x9
  1023b8:	e9 1f dd 00 00       	jmp    1100dc <_alltraps>
  1023bd:	90                   	nop

001023be <vector10>:
TRAPHANDLER(vector10,10 )
  1023be:	6a 0a                	push   $0xa
  1023c0:	e9 17 dd 00 00       	jmp    1100dc <_alltraps>
  1023c5:	90                   	nop

001023c6 <vector11>:
TRAPHANDLER(vector11,11 )
  1023c6:	6a 0b                	push   $0xb
  1023c8:	e9 0f dd 00 00       	jmp    1100dc <_alltraps>
  1023cd:	90                   	nop

001023ce <vector12>:
TRAPHANDLER(vector12,12 )
  1023ce:	6a 0c                	push   $0xc
  1023d0:	e9 07 dd 00 00       	jmp    1100dc <_alltraps>
  1023d5:	90                   	nop

001023d6 <vector13>:
TRAPHANDLER(vector13,13 )
  1023d6:	6a 0d                	push   $0xd
  1023d8:	e9 ff dc 00 00       	jmp    1100dc <_alltraps>
  1023dd:	90                   	nop

001023de <vector14>:
TRAPHANDLER(vector14,14 )
  1023de:	6a 0e                	push   $0xe
  1023e0:	e9 f7 dc 00 00       	jmp    1100dc <_alltraps>
  1023e5:	90                   	nop

001023e6 <vector15>:
TRAPHANDLER_NOEC(vector15,15 )
  1023e6:	6a 00                	push   $0x0
  1023e8:	6a 0f                	push   $0xf
  1023ea:	e9 ed dc 00 00       	jmp    1100dc <_alltraps>
  1023ef:	90                   	nop

001023f0 <vector16>:
TRAPHANDLER_NOEC(vector16,16 )
  1023f0:	6a 00                	push   $0x0
  1023f2:	6a 10                	push   $0x10
  1023f4:	e9 e3 dc 00 00       	jmp    1100dc <_alltraps>
  1023f9:	90                   	nop

001023fa <vector17>:
TRAPHANDLER(vector17,17 )
  1023fa:	6a 11                	push   $0x11
  1023fc:	e9 db dc 00 00       	jmp    1100dc <_alltraps>
  102401:	90                   	nop

00102402 <vector18>:
TRAPHANDLER_NOEC(vector18,18 )
  102402:	6a 00                	push   $0x0
  102404:	6a 12                	push   $0x12
  102406:	e9 d1 dc 00 00       	jmp    1100dc <_alltraps>
  10240b:	90                   	nop

0010240c <vector19>:
TRAPHANDLER_NOEC(vector19,19 )
  10240c:	6a 00                	push   $0x0
  10240e:	6a 13                	push   $0x13
  102410:	e9 c7 dc 00 00       	jmp    1100dc <_alltraps>
  102415:	90                   	nop

00102416 <vector20>:
TRAPHANDLER_NOEC(vector20, 20)
  102416:	6a 00                	push   $0x0
  102418:	6a 14                	push   $0x14
  10241a:	e9 bd dc 00 00       	jmp    1100dc <_alltraps>
  10241f:	90                   	nop

00102420 <vector21>:
TRAPHANDLER_NOEC(vector21, 21)
  102420:	6a 00                	push   $0x0
  102422:	6a 15                	push   $0x15
  102424:	e9 b3 dc 00 00       	jmp    1100dc <_alltraps>
  102429:	90                   	nop

0010242a <vector22>:
TRAPHANDLER_NOEC(vector22,22 )
  10242a:	6a 00                	push   $0x0
  10242c:	6a 16                	push   $0x16
  10242e:	e9 a9 dc 00 00       	jmp    1100dc <_alltraps>
  102433:	90                   	nop

00102434 <vector23>:
TRAPHANDLER_NOEC(vector23,23 )
  102434:	6a 00                	push   $0x0
  102436:	6a 17                	push   $0x17
  102438:	e9 9f dc 00 00       	jmp    1100dc <_alltraps>
  10243d:	90                   	nop

0010243e <vector24>:
TRAPHANDLER_NOEC(vector24,24 )
  10243e:	6a 00                	push   $0x0
  102440:	6a 18                	push   $0x18
  102442:	e9 95 dc 00 00       	jmp    1100dc <_alltraps>
  102447:	90                   	nop

00102448 <vector25>:
TRAPHANDLER_NOEC(vector25,25 )
  102448:	6a 00                	push   $0x0
  10244a:	6a 19                	push   $0x19
  10244c:	e9 8b dc 00 00       	jmp    1100dc <_alltraps>
  102451:	90                   	nop

00102452 <vector26>:
TRAPHANDLER_NOEC(vector26,26 )
  102452:	6a 00                	push   $0x0
  102454:	6a 1a                	push   $0x1a
  102456:	e9 81 dc 00 00       	jmp    1100dc <_alltraps>
  10245b:	90                   	nop

0010245c <vector27>:
TRAPHANDLER_NOEC(vector27,27 )
  10245c:	6a 00                	push   $0x0
  10245e:	6a 1b                	push   $0x1b
  102460:	e9 77 dc 00 00       	jmp    1100dc <_alltraps>
  102465:	90                   	nop

00102466 <vector28>:
TRAPHANDLER_NOEC(vector28,28 )
  102466:	6a 00                	push   $0x0
  102468:	6a 1c                	push   $0x1c
  10246a:	e9 6d dc 00 00       	jmp    1100dc <_alltraps>
  10246f:	90                   	nop

00102470 <vector29>:
TRAPHANDLER_NOEC(vector29,29 )
  102470:	6a 00                	push   $0x0
  102472:	6a 1d                	push   $0x1d
  102474:	e9 63 dc 00 00       	jmp    1100dc <_alltraps>
  102479:	90                   	nop

0010247a <vector30>:
TRAPHANDLER_NOEC(vector30,30 )
  10247a:	6a 00                	push   $0x0
  10247c:	6a 1e                	push   $0x1e
  10247e:	e9 59 dc 00 00       	jmp    1100dc <_alltraps>
  102483:	90                   	nop

00102484 <vector31>:
TRAPHANDLER_NOEC(vector31, 31)
  102484:	6a 00                	push   $0x0
  102486:	6a 1f                	push   $0x1f
  102488:	e9 4f dc 00 00       	jmp    1100dc <_alltraps>
  10248d:	90                   	nop

0010248e <vector32>:
TRAPHANDLER_NOEC(vector32,32 )
  10248e:	6a 00                	push   $0x0
  102490:	6a 20                	push   $0x20
  102492:	e9 45 dc 00 00       	jmp    1100dc <_alltraps>
  102497:	90                   	nop

00102498 <vector33>:
TRAPHANDLER_NOEC(vector33,33 )
  102498:	6a 00                	push   $0x0
  10249a:	6a 21                	push   $0x21
  10249c:	e9 3b dc 00 00       	jmp    1100dc <_alltraps>
  1024a1:	90                   	nop

001024a2 <vector34>:
TRAPHANDLER_NOEC(vector34,34 )
  1024a2:	6a 00                	push   $0x0
  1024a4:	6a 22                	push   $0x22
  1024a6:	e9 31 dc 00 00       	jmp    1100dc <_alltraps>
  1024ab:	90                   	nop

001024ac <vector35>:
TRAPHANDLER_NOEC(vector35,35 )
  1024ac:	6a 00                	push   $0x0
  1024ae:	6a 23                	push   $0x23
  1024b0:	e9 27 dc 00 00       	jmp    1100dc <_alltraps>
  1024b5:	90                   	nop

001024b6 <vector36>:
TRAPHANDLER_NOEC(vector36,36 )
  1024b6:	6a 00                	push   $0x0
  1024b8:	6a 24                	push   $0x24
  1024ba:	e9 1d dc 00 00       	jmp    1100dc <_alltraps>
  1024bf:	90                   	nop

001024c0 <vector37>:
TRAPHANDLER_NOEC(vector37,37 )
  1024c0:	6a 00                	push   $0x0
  1024c2:	6a 25                	push   $0x25
  1024c4:	e9 13 dc 00 00       	jmp    1100dc <_alltraps>
  1024c9:	90                   	nop

001024ca <vector38>:
TRAPHANDLER_NOEC(vector38,38 )
  1024ca:	6a 00                	push   $0x0
  1024cc:	6a 26                	push   $0x26
  1024ce:	e9 09 dc 00 00       	jmp    1100dc <_alltraps>
  1024d3:	90                   	nop

001024d4 <vector39>:
TRAPHANDLER_NOEC(vector39,39 )
  1024d4:	6a 00                	push   $0x0
  1024d6:	6a 27                	push   $0x27
  1024d8:	e9 ff db 00 00       	jmp    1100dc <_alltraps>
  1024dd:	90                   	nop

001024de <vector40>:
TRAPHANDLER_NOEC(vector40,40 )
  1024de:	6a 00                	push   $0x0
  1024e0:	6a 28                	push   $0x28
  1024e2:	e9 f5 db 00 00       	jmp    1100dc <_alltraps>
  1024e7:	90                   	nop

001024e8 <vector41>:
TRAPHANDLER_NOEC(vector41, 41)
  1024e8:	6a 00                	push   $0x0
  1024ea:	6a 29                	push   $0x29
  1024ec:	e9 eb db 00 00       	jmp    1100dc <_alltraps>
  1024f1:	90                   	nop

001024f2 <vector42>:
TRAPHANDLER_NOEC(vector42,42 )
  1024f2:	6a 00                	push   $0x0
  1024f4:	6a 2a                	push   $0x2a
  1024f6:	e9 e1 db 00 00       	jmp    1100dc <_alltraps>
  1024fb:	90                   	nop

001024fc <vector43>:
TRAPHANDLER_NOEC(vector43,43 )
  1024fc:	6a 00                	push   $0x0
  1024fe:	6a 2b                	push   $0x2b
  102500:	e9 d7 db 00 00       	jmp    1100dc <_alltraps>
  102505:	90                   	nop

00102506 <vector44>:
TRAPHANDLER_NOEC(vector44,44 )
  102506:	6a 00                	push   $0x0
  102508:	6a 2c                	push   $0x2c
  10250a:	e9 cd db 00 00       	jmp    1100dc <_alltraps>
  10250f:	90                   	nop

00102510 <vector45>:
TRAPHANDLER_NOEC(vector45,45 )
  102510:	6a 00                	push   $0x0
  102512:	6a 2d                	push   $0x2d
  102514:	e9 c3 db 00 00       	jmp    1100dc <_alltraps>
  102519:	90                   	nop

0010251a <vector46>:
TRAPHANDLER_NOEC(vector46,46 )
  10251a:	6a 00                	push   $0x0
  10251c:	6a 2e                	push   $0x2e
  10251e:	e9 b9 db 00 00       	jmp    1100dc <_alltraps>
  102523:	90                   	nop

00102524 <vector47>:
TRAPHANDLER_NOEC(vector47,47 )
  102524:	6a 00                	push   $0x0
  102526:	6a 2f                	push   $0x2f
  102528:	e9 af db 00 00       	jmp    1100dc <_alltraps>
  10252d:	90                   	nop

0010252e <vector48>:
TRAPHANDLER_NOEC(vector48,48 )
  10252e:	6a 00                	push   $0x0
  102530:	6a 30                	push   $0x30
  102532:	e9 a5 db 00 00       	jmp    1100dc <_alltraps>
  102537:	90                   	nop

00102538 <vector49>:
TRAPHANDLER_NOEC(vector49,49 )
  102538:	6a 00                	push   $0x0
  10253a:	6a 31                	push   $0x31
  10253c:	e9 9b db 00 00       	jmp    1100dc <_alltraps>
  102541:	90                   	nop

00102542 <vector50>:
TRAPHANDLER_NOEC(vector50,50 )
  102542:	6a 00                	push   $0x0
  102544:	6a 32                	push   $0x32
  102546:	e9 91 db 00 00       	jmp    1100dc <_alltraps>
  10254b:	90                   	nop

0010254c <cpu_cur>:
#define cpu_disabled(c)		0

// Find the CPU struct representing the current CPU.
// It always resides at the bottom of the page containing the CPU's stack.
static inline cpu *
cpu_cur() {
  10254c:	55                   	push   %ebp
  10254d:	89 e5                	mov    %esp,%ebp
  10254f:	53                   	push   %ebx
  102550:	83 ec 24             	sub    $0x24,%esp

static gcc_inline uint32_t
read_esp(void)
{
        uint32_t esp;
        __asm __volatile("movl %%esp,%0" : "=rm" (esp));
  102553:	89 e3                	mov    %esp,%ebx
  102555:	89 5d ec             	mov    %ebx,-0x14(%ebp)
        return esp;
  102558:	8b 45 ec             	mov    -0x14(%ebp),%eax
	cpu *c = (cpu*)ROUNDDOWN(read_esp(), PAGESIZE);
  10255b:	89 45 f4             	mov    %eax,-0xc(%ebp)
  10255e:	8b 45 f4             	mov    -0xc(%ebp),%eax
  102561:	25 00 f0 ff ff       	and    $0xfffff000,%eax
  102566:	89 45 f0             	mov    %eax,-0x10(%ebp)
	assert(c->magic == CPU_MAGIC);
  102569:	8b 45 f0             	mov    -0x10(%ebp),%eax
  10256c:	8b 80 b8 00 00 00    	mov    0xb8(%eax),%eax
  102572:	3d 32 54 76 98       	cmp    $0x98765432,%eax
  102577:	74 24                	je     10259d <cpu_cur+0x51>
  102579:	c7 44 24 0c 90 ab 10 	movl   $0x10ab90,0xc(%esp)
  102580:	00 
  102581:	c7 44 24 08 a6 ab 10 	movl   $0x10aba6,0x8(%esp)
  102588:	00 
  102589:	c7 44 24 04 5c 00 00 	movl   $0x5c,0x4(%esp)
  102590:	00 
  102591:	c7 04 24 bb ab 10 00 	movl   $0x10abbb,(%esp)
  102598:	e8 9b e3 ff ff       	call   100938 <debug_panic>
	return c;
  10259d:	8b 45 f0             	mov    -0x10(%ebp),%eax
}
  1025a0:	83 c4 24             	add    $0x24,%esp
  1025a3:	5b                   	pop    %ebx
  1025a4:	5d                   	pop    %ebp
  1025a5:	c3                   	ret    

001025a6 <cpu_onboot>:

// Returns true if we're running on the bootstrap CPU.
static inline int
cpu_onboot() {
  1025a6:	55                   	push   %ebp
  1025a7:	89 e5                	mov    %esp,%ebp
  1025a9:	83 ec 08             	sub    $0x8,%esp
	return cpu_cur() == &cpu_boot;
  1025ac:	e8 9b ff ff ff       	call   10254c <cpu_cur>
  1025b1:	3d 00 f0 10 00       	cmp    $0x10f000,%eax
  1025b6:	0f 94 c0             	sete   %al
  1025b9:	0f b6 c0             	movzbl %al,%eax
}
  1025bc:	c9                   	leave  
  1025bd:	c3                   	ret    

001025be <sum>:
volatile struct ioapic *ioapic;


static uint8_t
sum(uint8_t * addr, int len)
{
  1025be:	55                   	push   %ebp
  1025bf:	89 e5                	mov    %esp,%ebp
  1025c1:	83 ec 10             	sub    $0x10,%esp
	int i, sum;

	sum = 0;
  1025c4:	c7 45 f8 00 00 00 00 	movl   $0x0,-0x8(%ebp)
	for (i = 0; i < len; i++)
  1025cb:	c7 45 fc 00 00 00 00 	movl   $0x0,-0x4(%ebp)
  1025d2:	eb 15                	jmp    1025e9 <sum+0x2b>
		sum += addr[i];
  1025d4:	8b 55 fc             	mov    -0x4(%ebp),%edx
  1025d7:	8b 45 08             	mov    0x8(%ebp),%eax
  1025da:	01 d0                	add    %edx,%eax
  1025dc:	0f b6 00             	movzbl (%eax),%eax
  1025df:	0f b6 c0             	movzbl %al,%eax
  1025e2:	01 45 f8             	add    %eax,-0x8(%ebp)
sum(uint8_t * addr, int len)
{
	int i, sum;

	sum = 0;
	for (i = 0; i < len; i++)
  1025e5:	83 45 fc 01          	addl   $0x1,-0x4(%ebp)
  1025e9:	8b 45 fc             	mov    -0x4(%ebp),%eax
  1025ec:	3b 45 0c             	cmp    0xc(%ebp),%eax
  1025ef:	7c e3                	jl     1025d4 <sum+0x16>
		sum += addr[i];
	return sum;
  1025f1:	8b 45 f8             	mov    -0x8(%ebp),%eax
}
  1025f4:	c9                   	leave  
  1025f5:	c3                   	ret    

001025f6 <mpsearch1>:

//Look for an MP structure in the len bytes at addr.
static struct mp *
mpsearch1(uint8_t * addr, int len)
{
  1025f6:	55                   	push   %ebp
  1025f7:	89 e5                	mov    %esp,%ebp
  1025f9:	83 ec 28             	sub    $0x28,%esp
	uint8_t *e, *p;

	e = addr + len;
  1025fc:	8b 55 0c             	mov    0xc(%ebp),%edx
  1025ff:	8b 45 08             	mov    0x8(%ebp),%eax
  102602:	01 d0                	add    %edx,%eax
  102604:	89 45 f0             	mov    %eax,-0x10(%ebp)
	for (p = addr; p < e; p += sizeof(struct mp))
  102607:	8b 45 08             	mov    0x8(%ebp),%eax
  10260a:	89 45 f4             	mov    %eax,-0xc(%ebp)
  10260d:	eb 3f                	jmp    10264e <mpsearch1+0x58>
		if (memcmp(p, "_MP_", 4) == 0 && sum(p, sizeof(struct mp)) == 0)
  10260f:	c7 44 24 08 04 00 00 	movl   $0x4,0x8(%esp)
  102616:	00 
  102617:	c7 44 24 04 c8 ab 10 	movl   $0x10abc8,0x4(%esp)
  10261e:	00 
  10261f:	8b 45 f4             	mov    -0xc(%ebp),%eax
  102622:	89 04 24             	mov    %eax,(%esp)
  102625:	e8 80 77 00 00       	call   109daa <memcmp>
  10262a:	85 c0                	test   %eax,%eax
  10262c:	75 1c                	jne    10264a <mpsearch1+0x54>
  10262e:	c7 44 24 04 10 00 00 	movl   $0x10,0x4(%esp)
  102635:	00 
  102636:	8b 45 f4             	mov    -0xc(%ebp),%eax
  102639:	89 04 24             	mov    %eax,(%esp)
  10263c:	e8 7d ff ff ff       	call   1025be <sum>
  102641:	84 c0                	test   %al,%al
  102643:	75 05                	jne    10264a <mpsearch1+0x54>
			return (struct mp *) p;
  102645:	8b 45 f4             	mov    -0xc(%ebp),%eax
  102648:	eb 11                	jmp    10265b <mpsearch1+0x65>
mpsearch1(uint8_t * addr, int len)
{
	uint8_t *e, *p;

	e = addr + len;
	for (p = addr; p < e; p += sizeof(struct mp))
  10264a:	83 45 f4 10          	addl   $0x10,-0xc(%ebp)
  10264e:	8b 45 f4             	mov    -0xc(%ebp),%eax
  102651:	3b 45 f0             	cmp    -0x10(%ebp),%eax
  102654:	72 b9                	jb     10260f <mpsearch1+0x19>
		if (memcmp(p, "_MP_", 4) == 0 && sum(p, sizeof(struct mp)) == 0)
			return (struct mp *) p;
	return 0;
  102656:	b8 00 00 00 00       	mov    $0x0,%eax
}
  10265b:	c9                   	leave  
  10265c:	c3                   	ret    

0010265d <mpsearch>:
// 1) in the first KB of the EBDA;
// 2) in the last KB of system base memory;
// 3) in the BIOS ROM between 0xE0000 and 0xFFFFF.
static struct mp *
mpsearch(void)
{
  10265d:	55                   	push   %ebp
  10265e:	89 e5                	mov    %esp,%ebp
  102660:	83 ec 28             	sub    $0x28,%esp
	uint8_t          *bda;
	uint32_t            p;
	struct mp      *mp;

	bda = (uint8_t *) 0x400;
  102663:	c7 45 f4 00 04 00 00 	movl   $0x400,-0xc(%ebp)
	if ((p = ((bda[0x0F] << 8) | bda[0x0E]) << 4)) {
  10266a:	8b 45 f4             	mov    -0xc(%ebp),%eax
  10266d:	83 c0 0f             	add    $0xf,%eax
  102670:	0f b6 00             	movzbl (%eax),%eax
  102673:	0f b6 c0             	movzbl %al,%eax
  102676:	89 c2                	mov    %eax,%edx
  102678:	c1 e2 08             	shl    $0x8,%edx
  10267b:	8b 45 f4             	mov    -0xc(%ebp),%eax
  10267e:	83 c0 0e             	add    $0xe,%eax
  102681:	0f b6 00             	movzbl (%eax),%eax
  102684:	0f b6 c0             	movzbl %al,%eax
  102687:	09 d0                	or     %edx,%eax
  102689:	c1 e0 04             	shl    $0x4,%eax
  10268c:	89 45 f0             	mov    %eax,-0x10(%ebp)
  10268f:	83 7d f0 00          	cmpl   $0x0,-0x10(%ebp)
  102693:	74 21                	je     1026b6 <mpsearch+0x59>
		if ((mp = mpsearch1((uint8_t *) p, 1024)))
  102695:	8b 45 f0             	mov    -0x10(%ebp),%eax
  102698:	c7 44 24 04 00 04 00 	movl   $0x400,0x4(%esp)
  10269f:	00 
  1026a0:	89 04 24             	mov    %eax,(%esp)
  1026a3:	e8 4e ff ff ff       	call   1025f6 <mpsearch1>
  1026a8:	89 45 ec             	mov    %eax,-0x14(%ebp)
  1026ab:	83 7d ec 00          	cmpl   $0x0,-0x14(%ebp)
  1026af:	74 50                	je     102701 <mpsearch+0xa4>
			return mp;
  1026b1:	8b 45 ec             	mov    -0x14(%ebp),%eax
  1026b4:	eb 5f                	jmp    102715 <mpsearch+0xb8>
	} else {
		p = ((bda[0x14] << 8) | bda[0x13]) * 1024;
  1026b6:	8b 45 f4             	mov    -0xc(%ebp),%eax
  1026b9:	83 c0 14             	add    $0x14,%eax
  1026bc:	0f b6 00             	movzbl (%eax),%eax
  1026bf:	0f b6 c0             	movzbl %al,%eax
  1026c2:	89 c2                	mov    %eax,%edx
  1026c4:	c1 e2 08             	shl    $0x8,%edx
  1026c7:	8b 45 f4             	mov    -0xc(%ebp),%eax
  1026ca:	83 c0 13             	add    $0x13,%eax
  1026cd:	0f b6 00             	movzbl (%eax),%eax
  1026d0:	0f b6 c0             	movzbl %al,%eax
  1026d3:	09 d0                	or     %edx,%eax
  1026d5:	c1 e0 0a             	shl    $0xa,%eax
  1026d8:	89 45 f0             	mov    %eax,-0x10(%ebp)
		if ((mp = mpsearch1((uint8_t *) p - 1024, 1024)))
  1026db:	8b 45 f0             	mov    -0x10(%ebp),%eax
  1026de:	2d 00 04 00 00       	sub    $0x400,%eax
  1026e3:	c7 44 24 04 00 04 00 	movl   $0x400,0x4(%esp)
  1026ea:	00 
  1026eb:	89 04 24             	mov    %eax,(%esp)
  1026ee:	e8 03 ff ff ff       	call   1025f6 <mpsearch1>
  1026f3:	89 45 ec             	mov    %eax,-0x14(%ebp)
  1026f6:	83 7d ec 00          	cmpl   $0x0,-0x14(%ebp)
  1026fa:	74 05                	je     102701 <mpsearch+0xa4>
			return mp;
  1026fc:	8b 45 ec             	mov    -0x14(%ebp),%eax
  1026ff:	eb 14                	jmp    102715 <mpsearch+0xb8>
	}
	return mpsearch1((uint8_t *) 0xF0000, 0x10000);
  102701:	c7 44 24 04 00 00 01 	movl   $0x10000,0x4(%esp)
  102708:	00 
  102709:	c7 04 24 00 00 0f 00 	movl   $0xf0000,(%esp)
  102710:	e8 e1 fe ff ff       	call   1025f6 <mpsearch1>
}
  102715:	c9                   	leave  
  102716:	c3                   	ret    

00102717 <mpconfig>:
// don 't accept the default configurations (physaddr == 0).
// Check for correct signature, calculate the checksum and,
// if correct, check the version.
// To do: check extended table checksum.
static struct mpconf *
mpconfig(struct mp **pmp) {
  102717:	55                   	push   %ebp
  102718:	89 e5                	mov    %esp,%ebp
  10271a:	83 ec 28             	sub    $0x28,%esp
	struct mpconf  *conf;
	struct mp      *mp;

	if ((mp = mpsearch()) == 0 || mp->physaddr == 0)
  10271d:	e8 3b ff ff ff       	call   10265d <mpsearch>
  102722:	89 45 f4             	mov    %eax,-0xc(%ebp)
  102725:	83 7d f4 00          	cmpl   $0x0,-0xc(%ebp)
  102729:	74 0a                	je     102735 <mpconfig+0x1e>
  10272b:	8b 45 f4             	mov    -0xc(%ebp),%eax
  10272e:	8b 40 04             	mov    0x4(%eax),%eax
  102731:	85 c0                	test   %eax,%eax
  102733:	75 07                	jne    10273c <mpconfig+0x25>
		return 0;
  102735:	b8 00 00 00 00       	mov    $0x0,%eax
  10273a:	eb 7b                	jmp    1027b7 <mpconfig+0xa0>
	conf = (struct mpconf *) mp->physaddr;
  10273c:	8b 45 f4             	mov    -0xc(%ebp),%eax
  10273f:	8b 40 04             	mov    0x4(%eax),%eax
  102742:	89 45 f0             	mov    %eax,-0x10(%ebp)
	if (memcmp(conf, "PCMP", 4) != 0)
  102745:	c7 44 24 08 04 00 00 	movl   $0x4,0x8(%esp)
  10274c:	00 
  10274d:	c7 44 24 04 cd ab 10 	movl   $0x10abcd,0x4(%esp)
  102754:	00 
  102755:	8b 45 f0             	mov    -0x10(%ebp),%eax
  102758:	89 04 24             	mov    %eax,(%esp)
  10275b:	e8 4a 76 00 00       	call   109daa <memcmp>
  102760:	85 c0                	test   %eax,%eax
  102762:	74 07                	je     10276b <mpconfig+0x54>
		return 0;
  102764:	b8 00 00 00 00       	mov    $0x0,%eax
  102769:	eb 4c                	jmp    1027b7 <mpconfig+0xa0>
	if (conf->version != 1 && conf->version != 4)
  10276b:	8b 45 f0             	mov    -0x10(%ebp),%eax
  10276e:	0f b6 40 06          	movzbl 0x6(%eax),%eax
  102772:	3c 01                	cmp    $0x1,%al
  102774:	74 12                	je     102788 <mpconfig+0x71>
  102776:	8b 45 f0             	mov    -0x10(%ebp),%eax
  102779:	0f b6 40 06          	movzbl 0x6(%eax),%eax
  10277d:	3c 04                	cmp    $0x4,%al
  10277f:	74 07                	je     102788 <mpconfig+0x71>
		return 0;
  102781:	b8 00 00 00 00       	mov    $0x0,%eax
  102786:	eb 2f                	jmp    1027b7 <mpconfig+0xa0>
	if (sum((uint8_t *) conf, conf->length) != 0)
  102788:	8b 45 f0             	mov    -0x10(%ebp),%eax
  10278b:	0f b7 40 04          	movzwl 0x4(%eax),%eax
  10278f:	0f b7 c0             	movzwl %ax,%eax
  102792:	89 44 24 04          	mov    %eax,0x4(%esp)
  102796:	8b 45 f0             	mov    -0x10(%ebp),%eax
  102799:	89 04 24             	mov    %eax,(%esp)
  10279c:	e8 1d fe ff ff       	call   1025be <sum>
  1027a1:	84 c0                	test   %al,%al
  1027a3:	74 07                	je     1027ac <mpconfig+0x95>
		return 0;
  1027a5:	b8 00 00 00 00       	mov    $0x0,%eax
  1027aa:	eb 0b                	jmp    1027b7 <mpconfig+0xa0>
       *pmp = mp;
  1027ac:	8b 45 08             	mov    0x8(%ebp),%eax
  1027af:	8b 55 f4             	mov    -0xc(%ebp),%edx
  1027b2:	89 10                	mov    %edx,(%eax)
	return conf;
  1027b4:	8b 45 f0             	mov    -0x10(%ebp),%eax
}
  1027b7:	c9                   	leave  
  1027b8:	c3                   	ret    

001027b9 <mp_init>:

void
mp_init(void)
{
  1027b9:	55                   	push   %ebp
  1027ba:	89 e5                	mov    %esp,%ebp
  1027bc:	53                   	push   %ebx
  1027bd:	83 ec 64             	sub    $0x64,%esp
	struct mp      *mp;
	struct mpconf  *conf;
	struct mpproc  *proc;
	struct mpioapic *mpio;

	if (!cpu_onboot())	// only do once, on the boot CPU
  1027c0:	e8 e1 fd ff ff       	call   1025a6 <cpu_onboot>
  1027c5:	85 c0                	test   %eax,%eax
  1027c7:	0f 84 75 01 00 00    	je     102942 <mp_init+0x189>
		return;

	if ((conf = mpconfig(&mp)) == 0)
  1027cd:	8d 45 c4             	lea    -0x3c(%ebp),%eax
  1027d0:	89 04 24             	mov    %eax,(%esp)
  1027d3:	e8 3f ff ff ff       	call   102717 <mpconfig>
  1027d8:	89 45 f0             	mov    %eax,-0x10(%ebp)
  1027db:	83 7d f0 00          	cmpl   $0x0,-0x10(%ebp)
  1027df:	0f 84 5d 01 00 00    	je     102942 <mp_init+0x189>
		return; // Not a multiprocessor machine - just use boot CPU.

	ismp = 1;
  1027e5:	c7 05 5c 8f 38 00 01 	movl   $0x1,0x388f5c
  1027ec:	00 00 00 
	lapic = (uint32_t *) conf->lapicaddr;
  1027ef:	8b 45 f0             	mov    -0x10(%ebp),%eax
  1027f2:	8b 40 24             	mov    0x24(%eax),%eax
  1027f5:	a3 04 c0 38 00       	mov    %eax,0x38c004
	for (p = (uint8_t *) (conf + 1), e = (uint8_t *) conf + conf->length;
  1027fa:	8b 45 f0             	mov    -0x10(%ebp),%eax
  1027fd:	83 c0 2c             	add    $0x2c,%eax
  102800:	89 45 f4             	mov    %eax,-0xc(%ebp)
  102803:	8b 45 f0             	mov    -0x10(%ebp),%eax
  102806:	0f b7 40 04          	movzwl 0x4(%eax),%eax
  10280a:	0f b7 d0             	movzwl %ax,%edx
  10280d:	8b 45 f0             	mov    -0x10(%ebp),%eax
  102810:	01 d0                	add    %edx,%eax
  102812:	89 45 ec             	mov    %eax,-0x14(%ebp)
  102815:	e9 cc 00 00 00       	jmp    1028e6 <mp_init+0x12d>
			p < e;) {
		switch (*p) {
  10281a:	8b 45 f4             	mov    -0xc(%ebp),%eax
  10281d:	0f b6 00             	movzbl (%eax),%eax
  102820:	0f b6 c0             	movzbl %al,%eax
  102823:	83 f8 04             	cmp    $0x4,%eax
  102826:	0f 87 90 00 00 00    	ja     1028bc <mp_init+0x103>
  10282c:	8b 04 85 00 ac 10 00 	mov    0x10ac00(,%eax,4),%eax
  102833:	ff e0                	jmp    *%eax
		case MPPROC:
			proc = (struct mpproc *) p;
  102835:	8b 45 f4             	mov    -0xc(%ebp),%eax
  102838:	89 45 e8             	mov    %eax,-0x18(%ebp)
			p += sizeof(struct mpproc);
  10283b:	83 45 f4 14          	addl   $0x14,-0xc(%ebp)
			if (!(proc->flags & MPENAB))
  10283f:	8b 45 e8             	mov    -0x18(%ebp),%eax
  102842:	0f b6 40 03          	movzbl 0x3(%eax),%eax
  102846:	0f b6 c0             	movzbl %al,%eax
  102849:	83 e0 01             	and    $0x1,%eax
  10284c:	85 c0                	test   %eax,%eax
  10284e:	0f 84 91 00 00 00    	je     1028e5 <mp_init+0x12c>
				continue;	// processor disabled

			// Get a cpu struct and kernel stack for this CPU.
			cpu *c = (proc->flags & MPBOOT)
  102854:	8b 45 e8             	mov    -0x18(%ebp),%eax
  102857:	0f b6 40 03          	movzbl 0x3(%eax),%eax
  10285b:	0f b6 c0             	movzbl %al,%eax
  10285e:	83 e0 02             	and    $0x2,%eax
					? &cpu_boot : cpu_alloc();
  102861:	85 c0                	test   %eax,%eax
  102863:	75 07                	jne    10286c <mp_init+0xb3>
  102865:	e8 dc ee ff ff       	call   101746 <cpu_alloc>
  10286a:	eb 05                	jmp    102871 <mp_init+0xb8>
  10286c:	b8 00 f0 10 00       	mov    $0x10f000,%eax
			p += sizeof(struct mpproc);
			if (!(proc->flags & MPENAB))
				continue;	// processor disabled

			// Get a cpu struct and kernel stack for this CPU.
			cpu *c = (proc->flags & MPBOOT)
  102871:	89 45 e4             	mov    %eax,-0x1c(%ebp)
					? &cpu_boot : cpu_alloc();
			c->id = proc->apicid;
  102874:	8b 45 e8             	mov    -0x18(%ebp),%eax
  102877:	0f b6 50 01          	movzbl 0x1(%eax),%edx
  10287b:	8b 45 e4             	mov    -0x1c(%ebp),%eax
  10287e:	88 90 ac 00 00 00    	mov    %dl,0xac(%eax)
			ncpu++;
  102884:	a1 60 8f 38 00       	mov    0x388f60,%eax
  102889:	83 c0 01             	add    $0x1,%eax
  10288c:	a3 60 8f 38 00       	mov    %eax,0x388f60
			continue;
  102891:	eb 53                	jmp    1028e6 <mp_init+0x12d>
		case MPIOAPIC:
			mpio = (struct mpioapic *) p;
  102893:	8b 45 f4             	mov    -0xc(%ebp),%eax
  102896:	89 45 e0             	mov    %eax,-0x20(%ebp)
			p += sizeof(struct mpioapic);
  102899:	83 45 f4 08          	addl   $0x8,-0xc(%ebp)
			ioapicid = mpio->apicno;
  10289d:	8b 45 e0             	mov    -0x20(%ebp),%eax
  1028a0:	0f b6 40 01          	movzbl 0x1(%eax),%eax
  1028a4:	a2 54 8f 38 00       	mov    %al,0x388f54
			ioapic = (struct ioapic *) mpio->addr;
  1028a9:	8b 45 e0             	mov    -0x20(%ebp),%eax
  1028ac:	8b 40 04             	mov    0x4(%eax),%eax
  1028af:	a3 58 8f 38 00       	mov    %eax,0x388f58
			continue;
  1028b4:	eb 30                	jmp    1028e6 <mp_init+0x12d>
		case MPBUS:
		case MPIOINTR:
		case MPLINTR:
			p += 8;
  1028b6:	83 45 f4 08          	addl   $0x8,-0xc(%ebp)
			continue;
  1028ba:	eb 2a                	jmp    1028e6 <mp_init+0x12d>
		default:
			panic("mpinit: unknown config type %x\n", *p);
  1028bc:	8b 45 f4             	mov    -0xc(%ebp),%eax
  1028bf:	0f b6 00             	movzbl (%eax),%eax
  1028c2:	0f b6 c0             	movzbl %al,%eax
  1028c5:	89 44 24 0c          	mov    %eax,0xc(%esp)
  1028c9:	c7 44 24 08 d4 ab 10 	movl   $0x10abd4,0x8(%esp)
  1028d0:	00 
  1028d1:	c7 44 24 04 92 00 00 	movl   $0x92,0x4(%esp)
  1028d8:	00 
  1028d9:	c7 04 24 f4 ab 10 00 	movl   $0x10abf4,(%esp)
  1028e0:	e8 53 e0 ff ff       	call   100938 <debug_panic>
		switch (*p) {
		case MPPROC:
			proc = (struct mpproc *) p;
			p += sizeof(struct mpproc);
			if (!(proc->flags & MPENAB))
				continue;	// processor disabled
  1028e5:	90                   	nop
	if ((conf = mpconfig(&mp)) == 0)
		return; // Not a multiprocessor machine - just use boot CPU.

	ismp = 1;
	lapic = (uint32_t *) conf->lapicaddr;
	for (p = (uint8_t *) (conf + 1), e = (uint8_t *) conf + conf->length;
  1028e6:	8b 45 f4             	mov    -0xc(%ebp),%eax
  1028e9:	3b 45 ec             	cmp    -0x14(%ebp),%eax
  1028ec:	0f 82 28 ff ff ff    	jb     10281a <mp_init+0x61>
			continue;
		default:
			panic("mpinit: unknown config type %x\n", *p);
		}
	}
	if (mp->imcrp) {
  1028f2:	8b 45 c4             	mov    -0x3c(%ebp),%eax
  1028f5:	0f b6 40 0c          	movzbl 0xc(%eax),%eax
  1028f9:	84 c0                	test   %al,%al
  1028fb:	74 45                	je     102942 <mp_init+0x189>
  1028fd:	c7 45 dc 22 00 00 00 	movl   $0x22,-0x24(%ebp)
  102904:	c6 45 db 70          	movb   $0x70,-0x25(%ebp)
}

static gcc_inline void
outb(int port, uint8_t data)
{
	__asm __volatile("outb %0,%w1" : : "a" (data), "d" (port));
  102908:	0f b6 45 db          	movzbl -0x25(%ebp),%eax
  10290c:	8b 55 dc             	mov    -0x24(%ebp),%edx
  10290f:	ee                   	out    %al,(%dx)
  102910:	c7 45 d4 23 00 00 00 	movl   $0x23,-0x2c(%ebp)

static gcc_inline uint8_t
inb(int port)
{
	uint8_t data;
	__asm __volatile("inb %w1,%0" : "=a" (data) : "d" (port));
  102917:	8b 55 d4             	mov    -0x2c(%ebp),%edx
  10291a:	89 55 b4             	mov    %edx,-0x4c(%ebp)
  10291d:	8b 55 b4             	mov    -0x4c(%ebp),%edx
  102920:	ec                   	in     (%dx),%al
  102921:	89 c3                	mov    %eax,%ebx
  102923:	88 5d d3             	mov    %bl,-0x2d(%ebp)
	return data;
  102926:	0f b6 45 d3          	movzbl -0x2d(%ebp),%eax
		// Bochs doesn 't support IMCR, so this doesn' t run on Bochs.
		// But it would on real hardware.
		outb(0x22, 0x70);		// Select IMCR
		outb(0x23, inb(0x23) | 1);	// Mask external interrupts.
  10292a:	83 c8 01             	or     $0x1,%eax
  10292d:	0f b6 c0             	movzbl %al,%eax
  102930:	c7 45 cc 23 00 00 00 	movl   $0x23,-0x34(%ebp)
  102937:	88 45 cb             	mov    %al,-0x35(%ebp)
}

static gcc_inline void
outb(int port, uint8_t data)
{
	__asm __volatile("outb %0,%w1" : : "a" (data), "d" (port));
  10293a:	0f b6 45 cb          	movzbl -0x35(%ebp),%eax
  10293e:	8b 55 cc             	mov    -0x34(%ebp),%edx
  102941:	ee                   	out    %al,(%dx)
	}
}
  102942:	83 c4 64             	add    $0x64,%esp
  102945:	5b                   	pop    %ebx
  102946:	5d                   	pop    %ebp
  102947:	c3                   	ret    

00102948 <xchg>:
}

// Atomically set *addr to newval and return the old value of *addr.
static inline uint32_t
xchg(volatile uint32_t *addr, uint32_t newval)
{
  102948:	55                   	push   %ebp
  102949:	89 e5                	mov    %esp,%ebp
  10294b:	53                   	push   %ebx
  10294c:	83 ec 10             	sub    $0x10,%esp
	uint32_t result;

	// The + in "+m" denotes a read-modify-write operand.
	asm volatile("lock; xchgl %0, %1" :
	       "+m" (*addr), "=a" (result) :
  10294f:	8b 55 08             	mov    0x8(%ebp),%edx
xchg(volatile uint32_t *addr, uint32_t newval)
{
	uint32_t result;

	// The + in "+m" denotes a read-modify-write operand.
	asm volatile("lock; xchgl %0, %1" :
  102952:	8b 45 0c             	mov    0xc(%ebp),%eax
	       "+m" (*addr), "=a" (result) :
  102955:	8b 4d 08             	mov    0x8(%ebp),%ecx
xchg(volatile uint32_t *addr, uint32_t newval)
{
	uint32_t result;

	// The + in "+m" denotes a read-modify-write operand.
	asm volatile("lock; xchgl %0, %1" :
  102958:	89 c3                	mov    %eax,%ebx
  10295a:	89 d8                	mov    %ebx,%eax
  10295c:	f0 87 02             	lock xchg %eax,(%edx)
  10295f:	89 c3                	mov    %eax,%ebx
  102961:	89 5d f8             	mov    %ebx,-0x8(%ebp)
	       "+m" (*addr), "=a" (result) :
	       "1" (newval) :
	       "cc");
	return result;
  102964:	8b 45 f8             	mov    -0x8(%ebp),%eax
}
  102967:	83 c4 10             	add    $0x10,%esp
  10296a:	5b                   	pop    %ebx
  10296b:	5d                   	pop    %ebp
  10296c:	c3                   	ret    

0010296d <cpu_cur>:
#define cpu_disabled(c)		0

// Find the CPU struct representing the current CPU.
// It always resides at the bottom of the page containing the CPU's stack.
static inline cpu *
cpu_cur() {
  10296d:	55                   	push   %ebp
  10296e:	89 e5                	mov    %esp,%ebp
  102970:	53                   	push   %ebx
  102971:	83 ec 24             	sub    $0x24,%esp

static gcc_inline uint32_t
read_esp(void)
{
        uint32_t esp;
        __asm __volatile("movl %%esp,%0" : "=rm" (esp));
  102974:	89 e3                	mov    %esp,%ebx
  102976:	89 5d ec             	mov    %ebx,-0x14(%ebp)
        return esp;
  102979:	8b 45 ec             	mov    -0x14(%ebp),%eax
	cpu *c = (cpu*)ROUNDDOWN(read_esp(), PAGESIZE);
  10297c:	89 45 f4             	mov    %eax,-0xc(%ebp)
  10297f:	8b 45 f4             	mov    -0xc(%ebp),%eax
  102982:	25 00 f0 ff ff       	and    $0xfffff000,%eax
  102987:	89 45 f0             	mov    %eax,-0x10(%ebp)
	assert(c->magic == CPU_MAGIC);
  10298a:	8b 45 f0             	mov    -0x10(%ebp),%eax
  10298d:	8b 80 b8 00 00 00    	mov    0xb8(%eax),%eax
  102993:	3d 32 54 76 98       	cmp    $0x98765432,%eax
  102998:	74 24                	je     1029be <cpu_cur+0x51>
  10299a:	c7 44 24 0c 14 ac 10 	movl   $0x10ac14,0xc(%esp)
  1029a1:	00 
  1029a2:	c7 44 24 08 2a ac 10 	movl   $0x10ac2a,0x8(%esp)
  1029a9:	00 
  1029aa:	c7 44 24 04 5c 00 00 	movl   $0x5c,0x4(%esp)
  1029b1:	00 
  1029b2:	c7 04 24 3f ac 10 00 	movl   $0x10ac3f,(%esp)
  1029b9:	e8 7a df ff ff       	call   100938 <debug_panic>
	return c;
  1029be:	8b 45 f0             	mov    -0x10(%ebp),%eax
}
  1029c1:	83 c4 24             	add    $0x24,%esp
  1029c4:	5b                   	pop    %ebx
  1029c5:	5d                   	pop    %ebp
  1029c6:	c3                   	ret    

001029c7 <spinlock_init_>:
#include <kern/cons.h>


void
spinlock_init_(struct spinlock *lk, const char *file, int line)
{
  1029c7:	55                   	push   %ebp
  1029c8:	89 e5                	mov    %esp,%ebp
	lk->file = file;
  1029ca:	8b 45 08             	mov    0x8(%ebp),%eax
  1029cd:	8b 55 0c             	mov    0xc(%ebp),%edx
  1029d0:	89 50 04             	mov    %edx,0x4(%eax)
	lk->line = line;
  1029d3:	8b 45 08             	mov    0x8(%ebp),%eax
  1029d6:	8b 55 10             	mov    0x10(%ebp),%edx
  1029d9:	89 50 08             	mov    %edx,0x8(%eax)
	lk->cpu = NULL;
  1029dc:	8b 45 08             	mov    0x8(%ebp),%eax
  1029df:	c7 40 0c 00 00 00 00 	movl   $0x0,0xc(%eax)
	lk->locked = 0;
  1029e6:	8b 45 08             	mov    0x8(%ebp),%eax
  1029e9:	c7 00 00 00 00 00    	movl   $0x0,(%eax)
}
  1029ef:	5d                   	pop    %ebp
  1029f0:	c3                   	ret    

001029f1 <spinlock_acquire>:
// Loops (spins) until the lock is acquired.
// Holding a lock for a long time may cause
// other CPUs to waste time spinning to acquire it.
void
spinlock_acquire(struct spinlock *lk)
{
  1029f1:	55                   	push   %ebp
  1029f2:	89 e5                	mov    %esp,%ebp
  1029f4:	53                   	push   %ebx
  1029f5:	83 ec 24             	sub    $0x24,%esp
	if(spinlock_holding(lk))
  1029f8:	8b 45 08             	mov    0x8(%ebp),%eax
  1029fb:	89 04 24             	mov    %eax,(%esp)
  1029fe:	e8 bd 00 00 00       	call   102ac0 <spinlock_holding>
  102a03:	85 c0                	test   %eax,%eax
  102a05:	74 1c                	je     102a23 <spinlock_acquire+0x32>
		panic("Has already held this spinlock!\n");
  102a07:	c7 44 24 08 4c ac 10 	movl   $0x10ac4c,0x8(%esp)
  102a0e:	00 
  102a0f:	c7 44 24 04 24 00 00 	movl   $0x24,0x4(%esp)
  102a16:	00 
  102a17:	c7 04 24 6d ac 10 00 	movl   $0x10ac6d,(%esp)
  102a1e:	e8 15 df ff ff       	call   100938 <debug_panic>
	while(xchg(&lk->locked, 1) != 0);
  102a23:	90                   	nop
  102a24:	8b 45 08             	mov    0x8(%ebp),%eax
  102a27:	c7 44 24 04 01 00 00 	movl   $0x1,0x4(%esp)
  102a2e:	00 
  102a2f:	89 04 24             	mov    %eax,(%esp)
  102a32:	e8 11 ff ff ff       	call   102948 <xchg>
  102a37:	85 c0                	test   %eax,%eax
  102a39:	75 e9                	jne    102a24 <spinlock_acquire+0x33>
	lk->cpu = cpu_cur();
  102a3b:	e8 2d ff ff ff       	call   10296d <cpu_cur>
  102a40:	8b 55 08             	mov    0x8(%ebp),%edx
  102a43:	89 42 0c             	mov    %eax,0xc(%edx)
	debug_trace(read_ebp(), lk->eips);
  102a46:	8b 45 08             	mov    0x8(%ebp),%eax
  102a49:	8d 50 10             	lea    0x10(%eax),%edx

static gcc_inline uint32_t
read_ebp(void)
{
        uint32_t ebp;
        __asm __volatile("movl %%ebp,%0" : "=rm" (ebp));
  102a4c:	89 eb                	mov    %ebp,%ebx
  102a4e:	89 5d f4             	mov    %ebx,-0xc(%ebp)
        return ebp;
  102a51:	8b 45 f4             	mov    -0xc(%ebp),%eax
  102a54:	89 54 24 04          	mov    %edx,0x4(%esp)
  102a58:	89 04 24             	mov    %eax,(%esp)
  102a5b:	e8 e7 df ff ff       	call   100a47 <debug_trace>
}
  102a60:	83 c4 24             	add    $0x24,%esp
  102a63:	5b                   	pop    %ebx
  102a64:	5d                   	pop    %ebp
  102a65:	c3                   	ret    

00102a66 <spinlock_release>:

// Release the lock.
void
spinlock_release(struct spinlock *lk)
{
  102a66:	55                   	push   %ebp
  102a67:	89 e5                	mov    %esp,%ebp
  102a69:	83 ec 18             	sub    $0x18,%esp
	if(!spinlock_holding(lk))
  102a6c:	8b 45 08             	mov    0x8(%ebp),%eax
  102a6f:	89 04 24             	mov    %eax,(%esp)
  102a72:	e8 49 00 00 00       	call   102ac0 <spinlock_holding>
  102a77:	85 c0                	test   %eax,%eax
  102a79:	75 1c                	jne    102a97 <spinlock_release+0x31>
		panic("Doesn't hold the spinlock!\n");
  102a7b:	c7 44 24 08 7d ac 10 	movl   $0x10ac7d,0x8(%esp)
  102a82:	00 
  102a83:	c7 44 24 04 2f 00 00 	movl   $0x2f,0x4(%esp)
  102a8a:	00 
  102a8b:	c7 04 24 6d ac 10 00 	movl   $0x10ac6d,(%esp)
  102a92:	e8 a1 de ff ff       	call   100938 <debug_panic>
	lk->eips[0] = 0;
  102a97:	8b 45 08             	mov    0x8(%ebp),%eax
  102a9a:	c7 40 10 00 00 00 00 	movl   $0x0,0x10(%eax)
	lk->cpu = NULL;
  102aa1:	8b 45 08             	mov    0x8(%ebp),%eax
  102aa4:	c7 40 0c 00 00 00 00 	movl   $0x0,0xc(%eax)
	xchg(&lk->locked, 0);
  102aab:	8b 45 08             	mov    0x8(%ebp),%eax
  102aae:	c7 44 24 04 00 00 00 	movl   $0x0,0x4(%esp)
  102ab5:	00 
  102ab6:	89 04 24             	mov    %eax,(%esp)
  102ab9:	e8 8a fe ff ff       	call   102948 <xchg>
}
  102abe:	c9                   	leave  
  102abf:	c3                   	ret    

00102ac0 <spinlock_holding>:

// Check whether this cpu is holding the lock.
int
spinlock_holding(spinlock *lock)
{
  102ac0:	55                   	push   %ebp
  102ac1:	89 e5                	mov    %esp,%ebp
  102ac3:	53                   	push   %ebx
  102ac4:	83 ec 04             	sub    $0x4,%esp
	return lock->locked && lock->cpu == cpu_cur();
  102ac7:	8b 45 08             	mov    0x8(%ebp),%eax
  102aca:	8b 00                	mov    (%eax),%eax
  102acc:	85 c0                	test   %eax,%eax
  102ace:	74 16                	je     102ae6 <spinlock_holding+0x26>
  102ad0:	8b 45 08             	mov    0x8(%ebp),%eax
  102ad3:	8b 58 0c             	mov    0xc(%eax),%ebx
  102ad6:	e8 92 fe ff ff       	call   10296d <cpu_cur>
  102adb:	39 c3                	cmp    %eax,%ebx
  102add:	75 07                	jne    102ae6 <spinlock_holding+0x26>
  102adf:	b8 01 00 00 00       	mov    $0x1,%eax
  102ae4:	eb 05                	jmp    102aeb <spinlock_holding+0x2b>
  102ae6:	b8 00 00 00 00       	mov    $0x0,%eax
}
  102aeb:	83 c4 04             	add    $0x4,%esp
  102aee:	5b                   	pop    %ebx
  102aef:	5d                   	pop    %ebp
  102af0:	c3                   	ret    

00102af1 <spinlock_godeep>:
// Function that simply recurses to a specified depth.
// The useless return value and volatile parameter are
// so GCC doesn't collapse it via tail-call elimination.
int gcc_noinline
spinlock_godeep(volatile int depth, spinlock* lk)
{
  102af1:	55                   	push   %ebp
  102af2:	89 e5                	mov    %esp,%ebp
  102af4:	83 ec 18             	sub    $0x18,%esp
	if (depth==0) { spinlock_acquire(lk); return 1; }
  102af7:	8b 45 08             	mov    0x8(%ebp),%eax
  102afa:	85 c0                	test   %eax,%eax
  102afc:	75 12                	jne    102b10 <spinlock_godeep+0x1f>
  102afe:	8b 45 0c             	mov    0xc(%ebp),%eax
  102b01:	89 04 24             	mov    %eax,(%esp)
  102b04:	e8 e8 fe ff ff       	call   1029f1 <spinlock_acquire>
  102b09:	b8 01 00 00 00       	mov    $0x1,%eax
  102b0e:	eb 1b                	jmp    102b2b <spinlock_godeep+0x3a>
	else return spinlock_godeep(depth-1, lk) * depth;
  102b10:	8b 45 08             	mov    0x8(%ebp),%eax
  102b13:	8d 50 ff             	lea    -0x1(%eax),%edx
  102b16:	8b 45 0c             	mov    0xc(%ebp),%eax
  102b19:	89 44 24 04          	mov    %eax,0x4(%esp)
  102b1d:	89 14 24             	mov    %edx,(%esp)
  102b20:	e8 cc ff ff ff       	call   102af1 <spinlock_godeep>
  102b25:	8b 55 08             	mov    0x8(%ebp),%edx
  102b28:	0f af c2             	imul   %edx,%eax
}
  102b2b:	c9                   	leave  
  102b2c:	c3                   	ret    

00102b2d <spinlock_check>:

void spinlock_check()
{
  102b2d:	55                   	push   %ebp
  102b2e:	89 e5                	mov    %esp,%ebp
  102b30:	56                   	push   %esi
  102b31:	53                   	push   %ebx
  102b32:	83 ec 40             	sub    $0x40,%esp
  102b35:	89 e0                	mov    %esp,%eax
  102b37:	89 c3                	mov    %eax,%ebx
	const int NUMLOCKS=10;
  102b39:	c7 45 e8 0a 00 00 00 	movl   $0xa,-0x18(%ebp)
	const int NUMRUNS=5;
  102b40:	c7 45 e4 05 00 00 00 	movl   $0x5,-0x1c(%ebp)
	int i,j,run;
	const char* file = "spinlock_check";
  102b47:	c7 45 e0 99 ac 10 00 	movl   $0x10ac99,-0x20(%ebp)
	spinlock locks[NUMLOCKS];
  102b4e:	8b 45 e8             	mov    -0x18(%ebp),%eax
  102b51:	83 e8 01             	sub    $0x1,%eax
  102b54:	89 45 dc             	mov    %eax,-0x24(%ebp)
  102b57:	8b 45 e8             	mov    -0x18(%ebp),%eax
  102b5a:	ba 00 00 00 00       	mov    $0x0,%edx
  102b5f:	69 f2 c0 01 00 00    	imul   $0x1c0,%edx,%esi
  102b65:	6b c8 00             	imul   $0x0,%eax,%ecx
  102b68:	01 ce                	add    %ecx,%esi
  102b6a:	b9 c0 01 00 00       	mov    $0x1c0,%ecx
  102b6f:	f7 e1                	mul    %ecx
  102b71:	8d 0c 16             	lea    (%esi,%edx,1),%ecx
  102b74:	89 ca                	mov    %ecx,%edx
  102b76:	8b 45 e8             	mov    -0x18(%ebp),%eax
  102b79:	c1 e0 03             	shl    $0x3,%eax
  102b7c:	8b 45 e8             	mov    -0x18(%ebp),%eax
  102b7f:	ba 00 00 00 00       	mov    $0x0,%edx
  102b84:	69 f2 c0 01 00 00    	imul   $0x1c0,%edx,%esi
  102b8a:	6b c8 00             	imul   $0x0,%eax,%ecx
  102b8d:	01 ce                	add    %ecx,%esi
  102b8f:	b9 c0 01 00 00       	mov    $0x1c0,%ecx
  102b94:	f7 e1                	mul    %ecx
  102b96:	8d 0c 16             	lea    (%esi,%edx,1),%ecx
  102b99:	89 ca                	mov    %ecx,%edx
  102b9b:	8b 45 e8             	mov    -0x18(%ebp),%eax
  102b9e:	c1 e0 03             	shl    $0x3,%eax
  102ba1:	8d 14 c5 00 00 00 00 	lea    0x0(,%eax,8),%edx
  102ba8:	89 d1                	mov    %edx,%ecx
  102baa:	29 c1                	sub    %eax,%ecx
  102bac:	89 c8                	mov    %ecx,%eax
  102bae:	8d 50 03             	lea    0x3(%eax),%edx
  102bb1:	b8 10 00 00 00       	mov    $0x10,%eax
  102bb6:	83 e8 01             	sub    $0x1,%eax
  102bb9:	01 d0                	add    %edx,%eax
  102bbb:	c7 45 d4 10 00 00 00 	movl   $0x10,-0x2c(%ebp)
  102bc2:	ba 00 00 00 00       	mov    $0x0,%edx
  102bc7:	f7 75 d4             	divl   -0x2c(%ebp)
  102bca:	6b c0 10             	imul   $0x10,%eax,%eax
  102bcd:	29 c4                	sub    %eax,%esp
  102bcf:	8d 44 24 10          	lea    0x10(%esp),%eax
  102bd3:	83 c0 03             	add    $0x3,%eax
  102bd6:	c1 e8 02             	shr    $0x2,%eax
  102bd9:	c1 e0 02             	shl    $0x2,%eax
  102bdc:	89 45 d8             	mov    %eax,-0x28(%ebp)

	// Initialize the locks
	for(i=0;i<NUMLOCKS;i++) spinlock_init_(&locks[i], file, 0);
  102bdf:	c7 45 f4 00 00 00 00 	movl   $0x0,-0xc(%ebp)
  102be6:	eb 2f                	jmp    102c17 <spinlock_check+0xea>
  102be8:	8b 45 f4             	mov    -0xc(%ebp),%eax
  102beb:	c1 e0 03             	shl    $0x3,%eax
  102bee:	8d 14 c5 00 00 00 00 	lea    0x0(,%eax,8),%edx
  102bf5:	29 c2                	sub    %eax,%edx
  102bf7:	8b 45 d8             	mov    -0x28(%ebp),%eax
  102bfa:	01 c2                	add    %eax,%edx
  102bfc:	c7 44 24 08 00 00 00 	movl   $0x0,0x8(%esp)
  102c03:	00 
  102c04:	8b 45 e0             	mov    -0x20(%ebp),%eax
  102c07:	89 44 24 04          	mov    %eax,0x4(%esp)
  102c0b:	89 14 24             	mov    %edx,(%esp)
  102c0e:	e8 b4 fd ff ff       	call   1029c7 <spinlock_init_>
  102c13:	83 45 f4 01          	addl   $0x1,-0xc(%ebp)
  102c17:	8b 45 f4             	mov    -0xc(%ebp),%eax
  102c1a:	3b 45 e8             	cmp    -0x18(%ebp),%eax
  102c1d:	7c c9                	jl     102be8 <spinlock_check+0xbb>
	// Make sure that all locks have CPU set to NULL initially
	for(i=0;i<NUMLOCKS;i++) assert(locks[i].cpu==NULL);
  102c1f:	c7 45 f4 00 00 00 00 	movl   $0x0,-0xc(%ebp)
  102c26:	eb 46                	jmp    102c6e <spinlock_check+0x141>
  102c28:	8b 4d d8             	mov    -0x28(%ebp),%ecx
  102c2b:	8b 45 f4             	mov    -0xc(%ebp),%eax
  102c2e:	c1 e0 03             	shl    $0x3,%eax
  102c31:	8d 14 c5 00 00 00 00 	lea    0x0(,%eax,8),%edx
  102c38:	29 c2                	sub    %eax,%edx
  102c3a:	8d 04 11             	lea    (%ecx,%edx,1),%eax
  102c3d:	83 c0 0c             	add    $0xc,%eax
  102c40:	8b 00                	mov    (%eax),%eax
  102c42:	85 c0                	test   %eax,%eax
  102c44:	74 24                	je     102c6a <spinlock_check+0x13d>
  102c46:	c7 44 24 0c a8 ac 10 	movl   $0x10aca8,0xc(%esp)
  102c4d:	00 
  102c4e:	c7 44 24 08 2a ac 10 	movl   $0x10ac2a,0x8(%esp)
  102c55:	00 
  102c56:	c7 44 24 04 51 00 00 	movl   $0x51,0x4(%esp)
  102c5d:	00 
  102c5e:	c7 04 24 6d ac 10 00 	movl   $0x10ac6d,(%esp)
  102c65:	e8 ce dc ff ff       	call   100938 <debug_panic>
  102c6a:	83 45 f4 01          	addl   $0x1,-0xc(%ebp)
  102c6e:	8b 45 f4             	mov    -0xc(%ebp),%eax
  102c71:	3b 45 e8             	cmp    -0x18(%ebp),%eax
  102c74:	7c b2                	jl     102c28 <spinlock_check+0xfb>
	// Make sure that all locks have the correct debug info.
	for(i=0;i<NUMLOCKS;i++) assert(locks[i].file==file);
  102c76:	c7 45 f4 00 00 00 00 	movl   $0x0,-0xc(%ebp)
  102c7d:	eb 47                	jmp    102cc6 <spinlock_check+0x199>
  102c7f:	8b 4d d8             	mov    -0x28(%ebp),%ecx
  102c82:	8b 45 f4             	mov    -0xc(%ebp),%eax
  102c85:	c1 e0 03             	shl    $0x3,%eax
  102c88:	8d 14 c5 00 00 00 00 	lea    0x0(,%eax,8),%edx
  102c8f:	29 c2                	sub    %eax,%edx
  102c91:	8d 04 11             	lea    (%ecx,%edx,1),%eax
  102c94:	83 c0 04             	add    $0x4,%eax
  102c97:	8b 00                	mov    (%eax),%eax
  102c99:	3b 45 e0             	cmp    -0x20(%ebp),%eax
  102c9c:	74 24                	je     102cc2 <spinlock_check+0x195>
  102c9e:	c7 44 24 0c bb ac 10 	movl   $0x10acbb,0xc(%esp)
  102ca5:	00 
  102ca6:	c7 44 24 08 2a ac 10 	movl   $0x10ac2a,0x8(%esp)
  102cad:	00 
  102cae:	c7 44 24 04 53 00 00 	movl   $0x53,0x4(%esp)
  102cb5:	00 
  102cb6:	c7 04 24 6d ac 10 00 	movl   $0x10ac6d,(%esp)
  102cbd:	e8 76 dc ff ff       	call   100938 <debug_panic>
  102cc2:	83 45 f4 01          	addl   $0x1,-0xc(%ebp)
  102cc6:	8b 45 f4             	mov    -0xc(%ebp),%eax
  102cc9:	3b 45 e8             	cmp    -0x18(%ebp),%eax
  102ccc:	7c b1                	jl     102c7f <spinlock_check+0x152>

	for (run=0;run<NUMRUNS;run++) 
  102cce:	c7 45 ec 00 00 00 00 	movl   $0x0,-0x14(%ebp)
  102cd5:	e9 fc 02 00 00       	jmp    102fd6 <spinlock_check+0x4a9>
	{
		// Lock all locks
		for(i=0;i<NUMLOCKS;i++)
  102cda:	c7 45 f4 00 00 00 00 	movl   $0x0,-0xc(%ebp)
  102ce1:	eb 27                	jmp    102d0a <spinlock_check+0x1dd>
			spinlock_godeep(i, &locks[i]);
  102ce3:	8b 45 f4             	mov    -0xc(%ebp),%eax
  102ce6:	c1 e0 03             	shl    $0x3,%eax
  102ce9:	8d 14 c5 00 00 00 00 	lea    0x0(,%eax,8),%edx
  102cf0:	29 c2                	sub    %eax,%edx
  102cf2:	8b 45 d8             	mov    -0x28(%ebp),%eax
  102cf5:	01 d0                	add    %edx,%eax
  102cf7:	89 44 24 04          	mov    %eax,0x4(%esp)
  102cfb:	8b 45 f4             	mov    -0xc(%ebp),%eax
  102cfe:	89 04 24             	mov    %eax,(%esp)
  102d01:	e8 eb fd ff ff       	call   102af1 <spinlock_godeep>
	for(i=0;i<NUMLOCKS;i++) assert(locks[i].file==file);

	for (run=0;run<NUMRUNS;run++) 
	{
		// Lock all locks
		for(i=0;i<NUMLOCKS;i++)
  102d06:	83 45 f4 01          	addl   $0x1,-0xc(%ebp)
  102d0a:	8b 45 f4             	mov    -0xc(%ebp),%eax
  102d0d:	3b 45 e8             	cmp    -0x18(%ebp),%eax
  102d10:	7c d1                	jl     102ce3 <spinlock_check+0x1b6>
			spinlock_godeep(i, &locks[i]);

		// Make sure that all locks have the right CPU
		for(i=0;i<NUMLOCKS;i++)
  102d12:	c7 45 f4 00 00 00 00 	movl   $0x0,-0xc(%ebp)
  102d19:	eb 4b                	jmp    102d66 <spinlock_check+0x239>
			assert(locks[i].cpu == cpu_cur());
  102d1b:	8b 4d d8             	mov    -0x28(%ebp),%ecx
  102d1e:	8b 45 f4             	mov    -0xc(%ebp),%eax
  102d21:	c1 e0 03             	shl    $0x3,%eax
  102d24:	8d 14 c5 00 00 00 00 	lea    0x0(,%eax,8),%edx
  102d2b:	29 c2                	sub    %eax,%edx
  102d2d:	8d 04 11             	lea    (%ecx,%edx,1),%eax
  102d30:	83 c0 0c             	add    $0xc,%eax
  102d33:	8b 30                	mov    (%eax),%esi
  102d35:	e8 33 fc ff ff       	call   10296d <cpu_cur>
  102d3a:	39 c6                	cmp    %eax,%esi
  102d3c:	74 24                	je     102d62 <spinlock_check+0x235>
  102d3e:	c7 44 24 0c cf ac 10 	movl   $0x10accf,0xc(%esp)
  102d45:	00 
  102d46:	c7 44 24 08 2a ac 10 	movl   $0x10ac2a,0x8(%esp)
  102d4d:	00 
  102d4e:	c7 44 24 04 5d 00 00 	movl   $0x5d,0x4(%esp)
  102d55:	00 
  102d56:	c7 04 24 6d ac 10 00 	movl   $0x10ac6d,(%esp)
  102d5d:	e8 d6 db ff ff       	call   100938 <debug_panic>
		// Lock all locks
		for(i=0;i<NUMLOCKS;i++)
			spinlock_godeep(i, &locks[i]);

		// Make sure that all locks have the right CPU
		for(i=0;i<NUMLOCKS;i++)
  102d62:	83 45 f4 01          	addl   $0x1,-0xc(%ebp)
  102d66:	8b 45 f4             	mov    -0xc(%ebp),%eax
  102d69:	3b 45 e8             	cmp    -0x18(%ebp),%eax
  102d6c:	7c ad                	jl     102d1b <spinlock_check+0x1ee>
			assert(locks[i].cpu == cpu_cur());
		// Make sure that all locks have holding correctly implemented.
		for(i=0;i<NUMLOCKS;i++)
  102d6e:	c7 45 f4 00 00 00 00 	movl   $0x0,-0xc(%ebp)
  102d75:	eb 48                	jmp    102dbf <spinlock_check+0x292>
			assert(spinlock_holding(&locks[i]) != 0);
  102d77:	8b 45 f4             	mov    -0xc(%ebp),%eax
  102d7a:	c1 e0 03             	shl    $0x3,%eax
  102d7d:	8d 14 c5 00 00 00 00 	lea    0x0(,%eax,8),%edx
  102d84:	29 c2                	sub    %eax,%edx
  102d86:	8b 45 d8             	mov    -0x28(%ebp),%eax
  102d89:	01 d0                	add    %edx,%eax
  102d8b:	89 04 24             	mov    %eax,(%esp)
  102d8e:	e8 2d fd ff ff       	call   102ac0 <spinlock_holding>
  102d93:	85 c0                	test   %eax,%eax
  102d95:	75 24                	jne    102dbb <spinlock_check+0x28e>
  102d97:	c7 44 24 0c ec ac 10 	movl   $0x10acec,0xc(%esp)
  102d9e:	00 
  102d9f:	c7 44 24 08 2a ac 10 	movl   $0x10ac2a,0x8(%esp)
  102da6:	00 
  102da7:	c7 44 24 04 60 00 00 	movl   $0x60,0x4(%esp)
  102dae:	00 
  102daf:	c7 04 24 6d ac 10 00 	movl   $0x10ac6d,(%esp)
  102db6:	e8 7d db ff ff       	call   100938 <debug_panic>

		// Make sure that all locks have the right CPU
		for(i=0;i<NUMLOCKS;i++)
			assert(locks[i].cpu == cpu_cur());
		// Make sure that all locks have holding correctly implemented.
		for(i=0;i<NUMLOCKS;i++)
  102dbb:	83 45 f4 01          	addl   $0x1,-0xc(%ebp)
  102dbf:	8b 45 f4             	mov    -0xc(%ebp),%eax
  102dc2:	3b 45 e8             	cmp    -0x18(%ebp),%eax
  102dc5:	7c b0                	jl     102d77 <spinlock_check+0x24a>
			assert(spinlock_holding(&locks[i]) != 0);
		// Make sure that top i frames are somewhere in godeep.
		for(i=0;i<NUMLOCKS;i++) 
  102dc7:	c7 45 f4 00 00 00 00 	movl   $0x0,-0xc(%ebp)
  102dce:	e9 bb 00 00 00       	jmp    102e8e <spinlock_check+0x361>
		{
			for(j=0; j<=i && j < DEBUG_TRACEFRAMES ; j++) 
  102dd3:	c7 45 f0 00 00 00 00 	movl   $0x0,-0x10(%ebp)
  102dda:	e9 99 00 00 00       	jmp    102e78 <spinlock_check+0x34b>
			{
				assert(locks[i].eips[j] >=
  102ddf:	8b 4d d8             	mov    -0x28(%ebp),%ecx
  102de2:	8b 45 f4             	mov    -0xc(%ebp),%eax
  102de5:	01 c0                	add    %eax,%eax
  102de7:	8d 14 c5 00 00 00 00 	lea    0x0(,%eax,8),%edx
  102dee:	29 c2                	sub    %eax,%edx
  102df0:	8b 45 f0             	mov    -0x10(%ebp),%eax
  102df3:	01 d0                	add    %edx,%eax
  102df5:	83 c0 04             	add    $0x4,%eax
  102df8:	8b 14 81             	mov    (%ecx,%eax,4),%edx
  102dfb:	b8 f1 2a 10 00       	mov    $0x102af1,%eax
  102e00:	39 c2                	cmp    %eax,%edx
  102e02:	73 24                	jae    102e28 <spinlock_check+0x2fb>
  102e04:	c7 44 24 0c 10 ad 10 	movl   $0x10ad10,0xc(%esp)
  102e0b:	00 
  102e0c:	c7 44 24 08 2a ac 10 	movl   $0x10ac2a,0x8(%esp)
  102e13:	00 
  102e14:	c7 44 24 04 67 00 00 	movl   $0x67,0x4(%esp)
  102e1b:	00 
  102e1c:	c7 04 24 6d ac 10 00 	movl   $0x10ac6d,(%esp)
  102e23:	e8 10 db ff ff       	call   100938 <debug_panic>
					(uint32_t)spinlock_godeep);
				assert(locks[i].eips[j] <
  102e28:	8b 4d d8             	mov    -0x28(%ebp),%ecx
  102e2b:	8b 45 f4             	mov    -0xc(%ebp),%eax
  102e2e:	01 c0                	add    %eax,%eax
  102e30:	8d 14 c5 00 00 00 00 	lea    0x0(,%eax,8),%edx
  102e37:	29 c2                	sub    %eax,%edx
  102e39:	8b 45 f0             	mov    -0x10(%ebp),%eax
  102e3c:	01 d0                	add    %edx,%eax
  102e3e:	83 c0 04             	add    $0x4,%eax
  102e41:	8b 04 81             	mov    (%ecx,%eax,4),%eax
  102e44:	ba f1 2a 10 00       	mov    $0x102af1,%edx
  102e49:	83 c2 64             	add    $0x64,%edx
  102e4c:	39 d0                	cmp    %edx,%eax
  102e4e:	72 24                	jb     102e74 <spinlock_check+0x347>
  102e50:	c7 44 24 0c 40 ad 10 	movl   $0x10ad40,0xc(%esp)
  102e57:	00 
  102e58:	c7 44 24 08 2a ac 10 	movl   $0x10ac2a,0x8(%esp)
  102e5f:	00 
  102e60:	c7 44 24 04 69 00 00 	movl   $0x69,0x4(%esp)
  102e67:	00 
  102e68:	c7 04 24 6d ac 10 00 	movl   $0x10ac6d,(%esp)
  102e6f:	e8 c4 da ff ff       	call   100938 <debug_panic>
		for(i=0;i<NUMLOCKS;i++)
			assert(spinlock_holding(&locks[i]) != 0);
		// Make sure that top i frames are somewhere in godeep.
		for(i=0;i<NUMLOCKS;i++) 
		{
			for(j=0; j<=i && j < DEBUG_TRACEFRAMES ; j++) 
  102e74:	83 45 f0 01          	addl   $0x1,-0x10(%ebp)
  102e78:	8b 45 f0             	mov    -0x10(%ebp),%eax
  102e7b:	3b 45 f4             	cmp    -0xc(%ebp),%eax
  102e7e:	7f 0a                	jg     102e8a <spinlock_check+0x35d>
  102e80:	83 7d f0 09          	cmpl   $0x9,-0x10(%ebp)
  102e84:	0f 8e 55 ff ff ff    	jle    102ddf <spinlock_check+0x2b2>
			assert(locks[i].cpu == cpu_cur());
		// Make sure that all locks have holding correctly implemented.
		for(i=0;i<NUMLOCKS;i++)
			assert(spinlock_holding(&locks[i]) != 0);
		// Make sure that top i frames are somewhere in godeep.
		for(i=0;i<NUMLOCKS;i++) 
  102e8a:	83 45 f4 01          	addl   $0x1,-0xc(%ebp)
  102e8e:	8b 45 f4             	mov    -0xc(%ebp),%eax
  102e91:	3b 45 e8             	cmp    -0x18(%ebp),%eax
  102e94:	0f 8c 39 ff ff ff    	jl     102dd3 <spinlock_check+0x2a6>
					(uint32_t)spinlock_godeep+100);
			}
		}

		// Release all locks
		for(i=0;i<NUMLOCKS;i++) spinlock_release(&locks[i]);
  102e9a:	c7 45 f4 00 00 00 00 	movl   $0x0,-0xc(%ebp)
  102ea1:	eb 20                	jmp    102ec3 <spinlock_check+0x396>
  102ea3:	8b 45 f4             	mov    -0xc(%ebp),%eax
  102ea6:	c1 e0 03             	shl    $0x3,%eax
  102ea9:	8d 14 c5 00 00 00 00 	lea    0x0(,%eax,8),%edx
  102eb0:	29 c2                	sub    %eax,%edx
  102eb2:	8b 45 d8             	mov    -0x28(%ebp),%eax
  102eb5:	01 d0                	add    %edx,%eax
  102eb7:	89 04 24             	mov    %eax,(%esp)
  102eba:	e8 a7 fb ff ff       	call   102a66 <spinlock_release>
  102ebf:	83 45 f4 01          	addl   $0x1,-0xc(%ebp)
  102ec3:	8b 45 f4             	mov    -0xc(%ebp),%eax
  102ec6:	3b 45 e8             	cmp    -0x18(%ebp),%eax
  102ec9:	7c d8                	jl     102ea3 <spinlock_check+0x376>
		// Make sure that the CPU has been cleared
		for(i=0;i<NUMLOCKS;i++) assert(locks[i].cpu == NULL);
  102ecb:	c7 45 f4 00 00 00 00 	movl   $0x0,-0xc(%ebp)
  102ed2:	eb 46                	jmp    102f1a <spinlock_check+0x3ed>
  102ed4:	8b 4d d8             	mov    -0x28(%ebp),%ecx
  102ed7:	8b 45 f4             	mov    -0xc(%ebp),%eax
  102eda:	c1 e0 03             	shl    $0x3,%eax
  102edd:	8d 14 c5 00 00 00 00 	lea    0x0(,%eax,8),%edx
  102ee4:	29 c2                	sub    %eax,%edx
  102ee6:	8d 04 11             	lea    (%ecx,%edx,1),%eax
  102ee9:	83 c0 0c             	add    $0xc,%eax
  102eec:	8b 00                	mov    (%eax),%eax
  102eee:	85 c0                	test   %eax,%eax
  102ef0:	74 24                	je     102f16 <spinlock_check+0x3e9>
  102ef2:	c7 44 24 0c 71 ad 10 	movl   $0x10ad71,0xc(%esp)
  102ef9:	00 
  102efa:	c7 44 24 08 2a ac 10 	movl   $0x10ac2a,0x8(%esp)
  102f01:	00 
  102f02:	c7 44 24 04 70 00 00 	movl   $0x70,0x4(%esp)
  102f09:	00 
  102f0a:	c7 04 24 6d ac 10 00 	movl   $0x10ac6d,(%esp)
  102f11:	e8 22 da ff ff       	call   100938 <debug_panic>
  102f16:	83 45 f4 01          	addl   $0x1,-0xc(%ebp)
  102f1a:	8b 45 f4             	mov    -0xc(%ebp),%eax
  102f1d:	3b 45 e8             	cmp    -0x18(%ebp),%eax
  102f20:	7c b2                	jl     102ed4 <spinlock_check+0x3a7>
		for(i=0;i<NUMLOCKS;i++) assert(locks[i].eips[0]==0);
  102f22:	c7 45 f4 00 00 00 00 	movl   $0x0,-0xc(%ebp)
  102f29:	eb 46                	jmp    102f71 <spinlock_check+0x444>
  102f2b:	8b 4d d8             	mov    -0x28(%ebp),%ecx
  102f2e:	8b 45 f4             	mov    -0xc(%ebp),%eax
  102f31:	c1 e0 03             	shl    $0x3,%eax
  102f34:	8d 14 c5 00 00 00 00 	lea    0x0(,%eax,8),%edx
  102f3b:	29 c2                	sub    %eax,%edx
  102f3d:	8d 04 11             	lea    (%ecx,%edx,1),%eax
  102f40:	83 c0 10             	add    $0x10,%eax
  102f43:	8b 00                	mov    (%eax),%eax
  102f45:	85 c0                	test   %eax,%eax
  102f47:	74 24                	je     102f6d <spinlock_check+0x440>
  102f49:	c7 44 24 0c 86 ad 10 	movl   $0x10ad86,0xc(%esp)
  102f50:	00 
  102f51:	c7 44 24 08 2a ac 10 	movl   $0x10ac2a,0x8(%esp)
  102f58:	00 
  102f59:	c7 44 24 04 71 00 00 	movl   $0x71,0x4(%esp)
  102f60:	00 
  102f61:	c7 04 24 6d ac 10 00 	movl   $0x10ac6d,(%esp)
  102f68:	e8 cb d9 ff ff       	call   100938 <debug_panic>
  102f6d:	83 45 f4 01          	addl   $0x1,-0xc(%ebp)
  102f71:	8b 45 f4             	mov    -0xc(%ebp),%eax
  102f74:	3b 45 e8             	cmp    -0x18(%ebp),%eax
  102f77:	7c b2                	jl     102f2b <spinlock_check+0x3fe>
		// Make sure that all locks have holding correctly implemented.
		for(i=0;i<NUMLOCKS;i++) assert(spinlock_holding(&locks[i]) == 0);
  102f79:	c7 45 f4 00 00 00 00 	movl   $0x0,-0xc(%ebp)
  102f80:	eb 48                	jmp    102fca <spinlock_check+0x49d>
  102f82:	8b 45 f4             	mov    -0xc(%ebp),%eax
  102f85:	c1 e0 03             	shl    $0x3,%eax
  102f88:	8d 14 c5 00 00 00 00 	lea    0x0(,%eax,8),%edx
  102f8f:	29 c2                	sub    %eax,%edx
  102f91:	8b 45 d8             	mov    -0x28(%ebp),%eax
  102f94:	01 d0                	add    %edx,%eax
  102f96:	89 04 24             	mov    %eax,(%esp)
  102f99:	e8 22 fb ff ff       	call   102ac0 <spinlock_holding>
  102f9e:	85 c0                	test   %eax,%eax
  102fa0:	74 24                	je     102fc6 <spinlock_check+0x499>
  102fa2:	c7 44 24 0c 9c ad 10 	movl   $0x10ad9c,0xc(%esp)
  102fa9:	00 
  102faa:	c7 44 24 08 2a ac 10 	movl   $0x10ac2a,0x8(%esp)
  102fb1:	00 
  102fb2:	c7 44 24 04 73 00 00 	movl   $0x73,0x4(%esp)
  102fb9:	00 
  102fba:	c7 04 24 6d ac 10 00 	movl   $0x10ac6d,(%esp)
  102fc1:	e8 72 d9 ff ff       	call   100938 <debug_panic>
  102fc6:	83 45 f4 01          	addl   $0x1,-0xc(%ebp)
  102fca:	8b 45 f4             	mov    -0xc(%ebp),%eax
  102fcd:	3b 45 e8             	cmp    -0x18(%ebp),%eax
  102fd0:	7c b0                	jl     102f82 <spinlock_check+0x455>
	// Make sure that all locks have CPU set to NULL initially
	for(i=0;i<NUMLOCKS;i++) assert(locks[i].cpu==NULL);
	// Make sure that all locks have the correct debug info.
	for(i=0;i<NUMLOCKS;i++) assert(locks[i].file==file);

	for (run=0;run<NUMRUNS;run++) 
  102fd2:	83 45 ec 01          	addl   $0x1,-0x14(%ebp)
  102fd6:	8b 45 ec             	mov    -0x14(%ebp),%eax
  102fd9:	3b 45 e4             	cmp    -0x1c(%ebp),%eax
  102fdc:	0f 8c f8 fc ff ff    	jl     102cda <spinlock_check+0x1ad>
		for(i=0;i<NUMLOCKS;i++) assert(locks[i].cpu == NULL);
		for(i=0;i<NUMLOCKS;i++) assert(locks[i].eips[0]==0);
		// Make sure that all locks have holding correctly implemented.
		for(i=0;i<NUMLOCKS;i++) assert(spinlock_holding(&locks[i]) == 0);
	}
	cprintf("spinlock_check() succeeded!\n");
  102fe2:	c7 04 24 bd ad 10 00 	movl   $0x10adbd,(%esp)
  102fe9:	e8 e2 68 00 00       	call   1098d0 <cprintf>
  102fee:	89 dc                	mov    %ebx,%esp
}
  102ff0:	8d 65 f8             	lea    -0x8(%ebp),%esp
  102ff3:	5b                   	pop    %ebx
  102ff4:	5e                   	pop    %esi
  102ff5:	5d                   	pop    %ebp
  102ff6:	c3                   	ret    
  102ff7:	90                   	nop

00102ff8 <xchg>:
}

// Atomically set *addr to newval and return the old value of *addr.
static inline uint32_t
xchg(volatile uint32_t *addr, uint32_t newval)
{
  102ff8:	55                   	push   %ebp
  102ff9:	89 e5                	mov    %esp,%ebp
  102ffb:	53                   	push   %ebx
  102ffc:	83 ec 10             	sub    $0x10,%esp
	uint32_t result;

	// The + in "+m" denotes a read-modify-write operand.
	asm volatile("lock; xchgl %0, %1" :
	       "+m" (*addr), "=a" (result) :
  102fff:	8b 55 08             	mov    0x8(%ebp),%edx
xchg(volatile uint32_t *addr, uint32_t newval)
{
	uint32_t result;

	// The + in "+m" denotes a read-modify-write operand.
	asm volatile("lock; xchgl %0, %1" :
  103002:	8b 45 0c             	mov    0xc(%ebp),%eax
	       "+m" (*addr), "=a" (result) :
  103005:	8b 4d 08             	mov    0x8(%ebp),%ecx
xchg(volatile uint32_t *addr, uint32_t newval)
{
	uint32_t result;

	// The + in "+m" denotes a read-modify-write operand.
	asm volatile("lock; xchgl %0, %1" :
  103008:	89 c3                	mov    %eax,%ebx
  10300a:	89 d8                	mov    %ebx,%eax
  10300c:	f0 87 02             	lock xchg %eax,(%edx)
  10300f:	89 c3                	mov    %eax,%ebx
  103011:	89 5d f8             	mov    %ebx,-0x8(%ebp)
	       "+m" (*addr), "=a" (result) :
	       "1" (newval) :
	       "cc");
	return result;
  103014:	8b 45 f8             	mov    -0x8(%ebp),%eax
}
  103017:	83 c4 10             	add    $0x10,%esp
  10301a:	5b                   	pop    %ebx
  10301b:	5d                   	pop    %ebp
  10301c:	c3                   	ret    

0010301d <lockadd>:

// Atomically add incr to *addr.
static inline void
lockadd(volatile int32_t *addr, int32_t incr)
{
  10301d:	55                   	push   %ebp
  10301e:	89 e5                	mov    %esp,%ebp
	asm volatile("lock; addl %1,%0" : "+m" (*addr) : "r" (incr) : "cc");
  103020:	8b 45 08             	mov    0x8(%ebp),%eax
  103023:	8b 55 0c             	mov    0xc(%ebp),%edx
  103026:	8b 4d 08             	mov    0x8(%ebp),%ecx
  103029:	f0 01 10             	lock add %edx,(%eax)
}
  10302c:	5d                   	pop    %ebp
  10302d:	c3                   	ret    

0010302e <pause>:
	return result;
}

static inline void
pause(void)
{
  10302e:	55                   	push   %ebp
  10302f:	89 e5                	mov    %esp,%ebp
	asm volatile("pause" : : : "memory");
  103031:	f3 90                	pause  
}
  103033:	5d                   	pop    %ebp
  103034:	c3                   	ret    

00103035 <cpu_cur>:
#define cpu_disabled(c)		0

// Find the CPU struct representing the current CPU.
// It always resides at the bottom of the page containing the CPU's stack.
static inline cpu *
cpu_cur() {
  103035:	55                   	push   %ebp
  103036:	89 e5                	mov    %esp,%ebp
  103038:	53                   	push   %ebx
  103039:	83 ec 24             	sub    $0x24,%esp

static gcc_inline uint32_t
read_esp(void)
{
        uint32_t esp;
        __asm __volatile("movl %%esp,%0" : "=rm" (esp));
  10303c:	89 e3                	mov    %esp,%ebx
  10303e:	89 5d ec             	mov    %ebx,-0x14(%ebp)
        return esp;
  103041:	8b 45 ec             	mov    -0x14(%ebp),%eax
	cpu *c = (cpu*)ROUNDDOWN(read_esp(), PAGESIZE);
  103044:	89 45 f4             	mov    %eax,-0xc(%ebp)
  103047:	8b 45 f4             	mov    -0xc(%ebp),%eax
  10304a:	25 00 f0 ff ff       	and    $0xfffff000,%eax
  10304f:	89 45 f0             	mov    %eax,-0x10(%ebp)
	assert(c->magic == CPU_MAGIC);
  103052:	8b 45 f0             	mov    -0x10(%ebp),%eax
  103055:	8b 80 b8 00 00 00    	mov    0xb8(%eax),%eax
  10305b:	3d 32 54 76 98       	cmp    $0x98765432,%eax
  103060:	74 24                	je     103086 <cpu_cur+0x51>
  103062:	c7 44 24 0c dc ad 10 	movl   $0x10addc,0xc(%esp)
  103069:	00 
  10306a:	c7 44 24 08 f2 ad 10 	movl   $0x10adf2,0x8(%esp)
  103071:	00 
  103072:	c7 44 24 04 5c 00 00 	movl   $0x5c,0x4(%esp)
  103079:	00 
  10307a:	c7 04 24 07 ae 10 00 	movl   $0x10ae07,(%esp)
  103081:	e8 b2 d8 ff ff       	call   100938 <debug_panic>
	return c;
  103086:	8b 45 f0             	mov    -0x10(%ebp),%eax
}
  103089:	83 c4 24             	add    $0x24,%esp
  10308c:	5b                   	pop    %ebx
  10308d:	5d                   	pop    %ebp
  10308e:	c3                   	ret    

0010308f <cpu_onboot>:

// Returns true if we're running on the bootstrap CPU.
static inline int
cpu_onboot() {
  10308f:	55                   	push   %ebp
  103090:	89 e5                	mov    %esp,%ebp
  103092:	83 ec 08             	sub    $0x8,%esp
	return cpu_cur() == &cpu_boot;
  103095:	e8 9b ff ff ff       	call   103035 <cpu_cur>
  10309a:	3d 00 f0 10 00       	cmp    $0x10f000,%eax
  10309f:	0f 94 c0             	sete   %al
  1030a2:	0f b6 c0             	movzbl %al,%eax
}
  1030a5:	c9                   	leave  
  1030a6:	c3                   	ret    

001030a7 <proc_init>:

proc_ready_queue prq;

void
proc_init(void)
{
  1030a7:	55                   	push   %ebp
  1030a8:	89 e5                	mov    %esp,%ebp
  1030aa:	83 ec 18             	sub    $0x18,%esp
	if (!cpu_onboot())
  1030ad:	e8 dd ff ff ff       	call   10308f <cpu_onboot>
  1030b2:	85 c0                	test   %eax,%eax
  1030b4:	74 32                	je     1030e8 <proc_init+0x41>
		return;
	// your module initialization code here
	spinlock_init(&prq.lock);
  1030b6:	c7 44 24 08 2a 00 00 	movl   $0x2a,0x8(%esp)
  1030bd:	00 
  1030be:	c7 44 24 04 14 ae 10 	movl   $0x10ae14,0x4(%esp)
  1030c5:	00 
  1030c6:	c7 04 24 a0 96 38 00 	movl   $0x3896a0,(%esp)
  1030cd:	e8 f5 f8 ff ff       	call   1029c7 <spinlock_init_>
	prq.head = prq.tail = NULL;
  1030d2:	c7 05 dc 96 38 00 00 	movl   $0x0,0x3896dc
  1030d9:	00 00 00 
  1030dc:	a1 dc 96 38 00       	mov    0x3896dc,%eax
  1030e1:	a3 d8 96 38 00       	mov    %eax,0x3896d8
  1030e6:	eb 01                	jmp    1030e9 <proc_init+0x42>

void
proc_init(void)
{
	if (!cpu_onboot())
		return;
  1030e8:	90                   	nop
	// your module initialization code here
	spinlock_init(&prq.lock);
	prq.head = prq.tail = NULL;
}
  1030e9:	c9                   	leave  
  1030ea:	c3                   	ret    

001030eb <proc_alloc>:

// Allocate and initialize a new proc as child 'cn' of parent 'p'.
// Returns NULL if no physical memory available.
proc *
proc_alloc(proc *p, uint32_t cn)
{
  1030eb:	55                   	push   %ebp
  1030ec:	89 e5                	mov    %esp,%ebp
  1030ee:	83 ec 28             	sub    $0x28,%esp
	pageinfo *pi = mem_alloc();
  1030f1:	e8 d5 de ff ff       	call   100fcb <mem_alloc>
  1030f6:	89 45 f4             	mov    %eax,-0xc(%ebp)
	if (!pi)
  1030f9:	83 7d f4 00          	cmpl   $0x0,-0xc(%ebp)
  1030fd:	75 0a                	jne    103109 <proc_alloc+0x1e>
		return NULL;
  1030ff:	b8 00 00 00 00       	mov    $0x0,%eax
  103104:	e9 c4 01 00 00       	jmp    1032cd <proc_alloc+0x1e2>
  103109:	8b 45 f4             	mov    -0xc(%ebp),%eax
  10310c:	89 45 ec             	mov    %eax,-0x14(%ebp)

// Atomically increment the reference count on a page.
static gcc_inline void
mem_incref(pageinfo *pi)
{
	assert(pi > &mem_pageinfo[1] && pi < &mem_pageinfo[mem_npage]);
  10310f:	a1 50 8f 38 00       	mov    0x388f50,%eax
  103114:	83 c0 08             	add    $0x8,%eax
  103117:	39 45 ec             	cmp    %eax,-0x14(%ebp)
  10311a:	76 15                	jbe    103131 <proc_alloc+0x46>
  10311c:	a1 50 8f 38 00       	mov    0x388f50,%eax
  103121:	8b 15 44 8f 38 00    	mov    0x388f44,%edx
  103127:	c1 e2 03             	shl    $0x3,%edx
  10312a:	01 d0                	add    %edx,%eax
  10312c:	39 45 ec             	cmp    %eax,-0x14(%ebp)
  10312f:	72 24                	jb     103155 <proc_alloc+0x6a>
  103131:	c7 44 24 0c 20 ae 10 	movl   $0x10ae20,0xc(%esp)
  103138:	00 
  103139:	c7 44 24 08 f2 ad 10 	movl   $0x10adf2,0x8(%esp)
  103140:	00 
  103141:	c7 44 24 04 58 00 00 	movl   $0x58,0x4(%esp)
  103148:	00 
  103149:	c7 04 24 57 ae 10 00 	movl   $0x10ae57,(%esp)
  103150:	e8 e3 d7 ff ff       	call   100938 <debug_panic>
	assert(pi != mem_ptr2pi(pmap_zero));	// Don't alloc/free zero page!
  103155:	a1 50 8f 38 00       	mov    0x388f50,%eax
  10315a:	ba 00 b0 38 00       	mov    $0x38b000,%edx
  10315f:	c1 ea 0c             	shr    $0xc,%edx
  103162:	c1 e2 03             	shl    $0x3,%edx
  103165:	01 d0                	add    %edx,%eax
  103167:	39 45 ec             	cmp    %eax,-0x14(%ebp)
  10316a:	75 24                	jne    103190 <proc_alloc+0xa5>
  10316c:	c7 44 24 0c 64 ae 10 	movl   $0x10ae64,0xc(%esp)
  103173:	00 
  103174:	c7 44 24 08 f2 ad 10 	movl   $0x10adf2,0x8(%esp)
  10317b:	00 
  10317c:	c7 44 24 04 59 00 00 	movl   $0x59,0x4(%esp)
  103183:	00 
  103184:	c7 04 24 57 ae 10 00 	movl   $0x10ae57,(%esp)
  10318b:	e8 a8 d7 ff ff       	call   100938 <debug_panic>
	assert(pi < mem_ptr2pi(start) || pi > mem_ptr2pi(end-1));
  103190:	a1 50 8f 38 00       	mov    0x388f50,%eax
  103195:	ba 0c 00 10 00       	mov    $0x10000c,%edx
  10319a:	c1 ea 0c             	shr    $0xc,%edx
  10319d:	c1 e2 03             	shl    $0x3,%edx
  1031a0:	01 d0                	add    %edx,%eax
  1031a2:	39 45 ec             	cmp    %eax,-0x14(%ebp)
  1031a5:	72 3b                	jb     1031e2 <proc_alloc+0xf7>
  1031a7:	a1 50 8f 38 00       	mov    0x388f50,%eax
  1031ac:	ba 07 c0 38 00       	mov    $0x38c007,%edx
  1031b1:	c1 ea 0c             	shr    $0xc,%edx
  1031b4:	c1 e2 03             	shl    $0x3,%edx
  1031b7:	01 d0                	add    %edx,%eax
  1031b9:	39 45 ec             	cmp    %eax,-0x14(%ebp)
  1031bc:	77 24                	ja     1031e2 <proc_alloc+0xf7>
  1031be:	c7 44 24 0c 80 ae 10 	movl   $0x10ae80,0xc(%esp)
  1031c5:	00 
  1031c6:	c7 44 24 08 f2 ad 10 	movl   $0x10adf2,0x8(%esp)
  1031cd:	00 
  1031ce:	c7 44 24 04 5a 00 00 	movl   $0x5a,0x4(%esp)
  1031d5:	00 
  1031d6:	c7 04 24 57 ae 10 00 	movl   $0x10ae57,(%esp)
  1031dd:	e8 56 d7 ff ff       	call   100938 <debug_panic>

	lockadd(&pi->refcount, 1);
  1031e2:	8b 45 ec             	mov    -0x14(%ebp),%eax
  1031e5:	83 c0 04             	add    $0x4,%eax
  1031e8:	c7 44 24 04 01 00 00 	movl   $0x1,0x4(%esp)
  1031ef:	00 
  1031f0:	89 04 24             	mov    %eax,(%esp)
  1031f3:	e8 25 fe ff ff       	call   10301d <lockadd>
	mem_incref(pi);

	proc *cp = (proc*)mem_pi2ptr(pi);
  1031f8:	8b 55 f4             	mov    -0xc(%ebp),%edx
  1031fb:	a1 50 8f 38 00       	mov    0x388f50,%eax
  103200:	89 d1                	mov    %edx,%ecx
  103202:	29 c1                	sub    %eax,%ecx
  103204:	89 c8                	mov    %ecx,%eax
  103206:	c1 f8 03             	sar    $0x3,%eax
  103209:	c1 e0 0c             	shl    $0xc,%eax
  10320c:	89 45 f0             	mov    %eax,-0x10(%ebp)
	memset(cp, 0, sizeof(proc));
  10320f:	c7 44 24 08 10 07 00 	movl   $0x710,0x8(%esp)
  103216:	00 
  103217:	c7 44 24 04 00 00 00 	movl   $0x0,0x4(%esp)
  10321e:	00 
  10321f:	8b 45 f0             	mov    -0x10(%ebp),%eax
  103222:	89 04 24             	mov    %eax,(%esp)
  103225:	e8 17 6a 00 00       	call   109c41 <memset>
	spinlock_init(&cp->lock);
  10322a:	8b 45 f0             	mov    -0x10(%ebp),%eax
  10322d:	c7 44 24 08 3a 00 00 	movl   $0x3a,0x8(%esp)
  103234:	00 
  103235:	c7 44 24 04 14 ae 10 	movl   $0x10ae14,0x4(%esp)
  10323c:	00 
  10323d:	89 04 24             	mov    %eax,(%esp)
  103240:	e8 82 f7 ff ff       	call   1029c7 <spinlock_init_>
	cp->parent = p;
  103245:	8b 45 f0             	mov    -0x10(%ebp),%eax
  103248:	8b 55 08             	mov    0x8(%ebp),%edx
  10324b:	89 50 38             	mov    %edx,0x38(%eax)
	cp->state = PROC_STOP;
  10324e:	8b 45 f0             	mov    -0x10(%ebp),%eax
  103251:	c7 80 3c 04 00 00 00 	movl   $0x0,0x43c(%eax)
  103258:	00 00 00 

	// Integer register state
	cp->sv.tf.ds = CPU_GDT_UDATA | 3;
  10325b:	8b 45 f0             	mov    -0x10(%ebp),%eax
  10325e:	66 c7 80 dc 04 00 00 	movw   $0x23,0x4dc(%eax)
  103265:	23 00 
	cp->sv.tf.es = CPU_GDT_UDATA | 3;
  103267:	8b 45 f0             	mov    -0x10(%ebp),%eax
  10326a:	66 c7 80 d8 04 00 00 	movw   $0x23,0x4d8(%eax)
  103271:	23 00 
	cp->sv.tf.cs = CPU_GDT_UCODE | 3;
  103273:	8b 45 f0             	mov    -0x10(%ebp),%eax
  103276:	66 c7 80 ec 04 00 00 	movw   $0x1b,0x4ec(%eax)
  10327d:	1b 00 
	cp->sv.tf.ss = CPU_GDT_UDATA | 3;
  10327f:	8b 45 f0             	mov    -0x10(%ebp),%eax
  103282:	66 c7 80 f8 04 00 00 	movw   $0x23,0x4f8(%eax)
  103289:	23 00 
	cp->sv.tf.eflags = FL_IF;
  10328b:	8b 45 f0             	mov    -0x10(%ebp),%eax
  10328e:	c7 80 f0 04 00 00 00 	movl   $0x200,0x4f0(%eax)
  103295:	02 00 00 
	cp->pdir = pmap_newpdir();
  103298:	e8 0a 17 00 00       	call   1049a7 <pmap_newpdir>
  10329d:	8b 55 f0             	mov    -0x10(%ebp),%edx
  1032a0:	89 82 00 07 00 00    	mov    %eax,0x700(%edx)
	cp->rpdir = pmap_newpdir();
  1032a6:	e8 fc 16 00 00       	call   1049a7 <pmap_newpdir>
  1032ab:	8b 55 f0             	mov    -0x10(%ebp),%edx
  1032ae:	89 82 04 07 00 00    	mov    %eax,0x704(%edx)
	if (p)
  1032b4:	83 7d 08 00          	cmpl   $0x0,0x8(%ebp)
  1032b8:	74 10                	je     1032ca <proc_alloc+0x1df>
		p->child[cn] = cp;
  1032ba:	8b 45 08             	mov    0x8(%ebp),%eax
  1032bd:	8b 55 0c             	mov    0xc(%ebp),%edx
  1032c0:	8d 4a 0c             	lea    0xc(%edx),%ecx
  1032c3:	8b 55 f0             	mov    -0x10(%ebp),%edx
  1032c6:	89 54 88 0c          	mov    %edx,0xc(%eax,%ecx,4)
	return cp;
  1032ca:	8b 45 f0             	mov    -0x10(%ebp),%eax
}
  1032cd:	c9                   	leave  
  1032ce:	c3                   	ret    

001032cf <proc_ready>:

// Put process p in the ready state and add it to the ready queue.
void
proc_ready(proc *p)
{
  1032cf:	55                   	push   %ebp
  1032d0:	89 e5                	mov    %esp,%ebp
  1032d2:	83 ec 18             	sub    $0x18,%esp
	assert(p->state != PROC_READY);
  1032d5:	8b 45 08             	mov    0x8(%ebp),%eax
  1032d8:	8b 80 3c 04 00 00    	mov    0x43c(%eax),%eax
  1032de:	83 f8 01             	cmp    $0x1,%eax
  1032e1:	75 24                	jne    103307 <proc_ready+0x38>
  1032e3:	c7 44 24 0c b1 ae 10 	movl   $0x10aeb1,0xc(%esp)
  1032ea:	00 
  1032eb:	c7 44 24 08 f2 ad 10 	movl   $0x10adf2,0x8(%esp)
  1032f2:	00 
  1032f3:	c7 44 24 04 4f 00 00 	movl   $0x4f,0x4(%esp)
  1032fa:	00 
  1032fb:	c7 04 24 14 ae 10 00 	movl   $0x10ae14,(%esp)
  103302:	e8 31 d6 ff ff       	call   100938 <debug_panic>
	spinlock_acquire(&p->lock);
  103307:	8b 45 08             	mov    0x8(%ebp),%eax
  10330a:	89 04 24             	mov    %eax,(%esp)
  10330d:	e8 df f6 ff ff       	call   1029f1 <spinlock_acquire>
	p->state = PROC_READY;
  103312:	8b 45 08             	mov    0x8(%ebp),%eax
  103315:	c7 80 3c 04 00 00 01 	movl   $0x1,0x43c(%eax)
  10331c:	00 00 00 
	p->readynext = NULL;
  10331f:	8b 45 08             	mov    0x8(%ebp),%eax
  103322:	c7 80 40 04 00 00 00 	movl   $0x0,0x440(%eax)
  103329:	00 00 00 
	spinlock_release(&p->lock);
  10332c:	8b 45 08             	mov    0x8(%ebp),%eax
  10332f:	89 04 24             	mov    %eax,(%esp)
  103332:	e8 2f f7 ff ff       	call   102a66 <spinlock_release>

	spinlock_acquire(&prq.lock);
  103337:	c7 04 24 a0 96 38 00 	movl   $0x3896a0,(%esp)
  10333e:	e8 ae f6 ff ff       	call   1029f1 <spinlock_acquire>
	if(prq.head == NULL || prq.tail == NULL){
  103343:	a1 d8 96 38 00       	mov    0x3896d8,%eax
  103348:	85 c0                	test   %eax,%eax
  10334a:	74 09                	je     103355 <proc_ready+0x86>
  10334c:	a1 dc 96 38 00       	mov    0x3896dc,%eax
  103351:	85 c0                	test   %eax,%eax
  103353:	75 14                	jne    103369 <proc_ready+0x9a>
		prq.head = prq.tail = p;
  103355:	8b 45 08             	mov    0x8(%ebp),%eax
  103358:	a3 dc 96 38 00       	mov    %eax,0x3896dc
  10335d:	a1 dc 96 38 00       	mov    0x3896dc,%eax
  103362:	a3 d8 96 38 00       	mov    %eax,0x3896d8
  103367:	eb 16                	jmp    10337f <proc_ready+0xb0>
	}
	else{
		prq.tail->readynext = p;
  103369:	a1 dc 96 38 00       	mov    0x3896dc,%eax
  10336e:	8b 55 08             	mov    0x8(%ebp),%edx
  103371:	89 90 40 04 00 00    	mov    %edx,0x440(%eax)
		prq.tail = p;
  103377:	8b 45 08             	mov    0x8(%ebp),%eax
  10337a:	a3 dc 96 38 00       	mov    %eax,0x3896dc
	}
	spinlock_release(&prq.lock);
  10337f:	c7 04 24 a0 96 38 00 	movl   $0x3896a0,(%esp)
  103386:	e8 db f6 ff ff       	call   102a66 <spinlock_release>
}
  10338b:	c9                   	leave  
  10338c:	c3                   	ret    

0010338d <proc_save>:
//	-1	if we entered the kernel via a trap before executing an insn
//	0	if we entered via a syscall and must abort/rollback the syscall
//	1	if we entered via a syscall and are completing the syscall
void
proc_save(proc *p, trapframe *tf, int entry)
{
  10338d:	55                   	push   %ebp
  10338e:	89 e5                	mov    %esp,%ebp
  103390:	83 ec 18             	sub    $0x18,%esp
	spinlock_acquire(&p->lock);
  103393:	8b 45 08             	mov    0x8(%ebp),%eax
  103396:	89 04 24             	mov    %eax,(%esp)
  103399:	e8 53 f6 ff ff       	call   1029f1 <spinlock_acquire>
	switch(entry){
  10339e:	8b 45 10             	mov    0x10(%ebp),%eax
  1033a1:	85 c0                	test   %eax,%eax
  1033a3:	74 2c                	je     1033d1 <proc_save+0x44>
  1033a5:	83 f8 01             	cmp    $0x1,%eax
  1033a8:	74 36                	je     1033e0 <proc_save+0x53>
  1033aa:	83 f8 ff             	cmp    $0xffffffff,%eax
  1033ad:	75 52                	jne    103401 <proc_save+0x74>
		case -1:
			memmove(&p->sv.tf, tf, sizeof(trapframe));
  1033af:	8b 45 08             	mov    0x8(%ebp),%eax
  1033b2:	8d 90 b0 04 00 00    	lea    0x4b0(%eax),%edx
  1033b8:	c7 44 24 08 4c 00 00 	movl   $0x4c,0x8(%esp)
  1033bf:	00 
  1033c0:	8b 45 0c             	mov    0xc(%ebp),%eax
  1033c3:	89 44 24 04          	mov    %eax,0x4(%esp)
  1033c7:	89 14 24             	mov    %edx,(%esp)
  1033ca:	e8 e0 68 00 00       	call   109caf <memmove>
			break;
  1033cf:	eb 30                	jmp    103401 <proc_save+0x74>
		case 0:
			tf->eip = (uintptr_t)((int*)tf->eip - 2);
  1033d1:	8b 45 0c             	mov    0xc(%ebp),%eax
  1033d4:	8b 40 38             	mov    0x38(%eax),%eax
  1033d7:	8d 50 f8             	lea    -0x8(%eax),%edx
  1033da:	8b 45 0c             	mov    0xc(%ebp),%eax
  1033dd:	89 50 38             	mov    %edx,0x38(%eax)
		case 1:
			memmove(&p->sv.tf, tf, sizeof(trapframe));
  1033e0:	8b 45 08             	mov    0x8(%ebp),%eax
  1033e3:	8d 90 b0 04 00 00    	lea    0x4b0(%eax),%edx
  1033e9:	c7 44 24 08 4c 00 00 	movl   $0x4c,0x8(%esp)
  1033f0:	00 
  1033f1:	8b 45 0c             	mov    0xc(%ebp),%eax
  1033f4:	89 44 24 04          	mov    %eax,0x4(%esp)
  1033f8:	89 14 24             	mov    %edx,(%esp)
  1033fb:	e8 af 68 00 00       	call   109caf <memmove>
			break;
  103400:	90                   	nop
	}
	spinlock_release(&p->lock);
  103401:	8b 45 08             	mov    0x8(%ebp),%eax
  103404:	89 04 24             	mov    %eax,(%esp)
  103407:	e8 5a f6 ff ff       	call   102a66 <spinlock_release>
}
  10340c:	c9                   	leave  
  10340d:	c3                   	ret    

0010340e <proc_wait>:
